@ Generated by gcc 2.9-psion-98r2 (Symbian build 539) for ARM/pe
	.file	"ayfly_s60AppUi.cpp"
.gcc2_compiled.:
	.section .rdata
	.align	0
.LC0:
	.ascii	"%1c%1c%1c%1c\000"
	.align	0
applicationName.3874:
	.word	9
	.ascii	"a\000y\000f\000l\000y\000_\000s\0006\0000\000\000\000"
.text
	.align	0
	.global	ConstructL__15Cayfly_s60AppUi
ConstructL__15Cayfly_s60AppUi:
	@ args = 0, pretend = 0, frame = 16
	@ frame_needed = 0, current_function_anonymous_args = 0
	stmfd	sp!, {r4, r5, lr}
	sub	sp, sp, #16
	mov	r4, r0
	mov	r1, #4096
	bl	BaseConstructL__9CAknAppUii
	mov	r5, sp
	mov	r0, r5
	mov	r1, r4
	bl	ClientRect__C9CEikAppUi
	mov	r0, r5
	bl	NewL__17Cayfly_s60AppViewRC5TRect
	str	r0, [r4, #96]
	mov	r3, #5
	str	r3, [r4, #104]
	mov	r3, #0
	str	r3, [r4, #100]
	add	sp, sp, #16
	ldmfd	sp!, {r4, r5, lr}
	bx	lr
	.align	0
	.global	__15Cayfly_s60AppUi
__15Cayfly_s60AppUi:
	@ args = 0, pretend = 0, frame = 0
	@ frame_needed = 0, current_function_anonymous_args = 0
	stmfd	sp!, {r4, lr}
	mov	r4, r0
	bl	__9CEikAppUi
	ldr	r3, .L3944
	str	r3, [r4, #72]
	ldr	r3, .L3944+4
	str	r3, [r4, #76]
	ldr	ip, .L3944+8
	str	ip, [r4, #20]
	ldr	r0, .L3944+12
	str	r0, [r4, #24]
	ldr	r1, .L3944+16
	str	r1, [r4, #28]
	ldr	r3, .L3944+20
	str	r3, [r4, #72]
	ldr	r2, .L3944+24
	str	r2, [r4, #76]
	ldr	r3, .L3944+28
	str	r3, [r4, #0]
	ldr	r3, .L3944+32
	str	r3, [r4, #72]
	ldr	r3, .L3944+36
	str	r3, [r4, #0]
	mov	r0, r4
	b	.L3943
.L3945:
	.align	0
.L3944:
	.word	__vt_22MEikStatusPaneObserver
	.word	__vt_28MCoeViewDeactivationObserver
	.word	__vt_9CAknAppUi.16MEikMenuObserver
	.word	__vt_9CEikAppUi.19MCoeMessageObserver
	.word	__vt_9CEikAppUi.15MObjectProvider
	.word	__vt_9CAknAppUi.22MEikStatusPaneObserver
	.word	__vt_9CAknAppUi.28MCoeViewDeactivationObserver
	.word	__vt_9CAknAppUi
	.word	__vt_15Cayfly_s60AppUi.22MEikStatusPaneObserver
	.word	__vt_15Cayfly_s60AppUi
.L3943:
	ldmfd	sp!, {r4, lr}
	bx	lr
	.align	0
	.global	_._15Cayfly_s60AppUi
_._15Cayfly_s60AppUi:
	@ args = 0, pretend = 0, frame = 0
	@ frame_needed = 0, current_function_anonymous_args = 0
	stmfd	sp!, {r4, r5, lr}
	mov	r4, r0
	mov	r5, r1
	ldr	r3, .L3953
	str	r3, [r4, #20]
	ldr	r3, .L3953+4
	str	r3, [r4, #24]
	ldr	r3, .L3953+8
	str	r3, [r4, #28]
	ldr	r3, .L3953+12
	str	r3, [r4, #72]
	ldr	r3, .L3953+16
	str	r3, [r4, #76]
	ldr	r3, .L3953+20
	str	r3, [r4, #0]
	ldr	r0, [r4, #96]
	cmp	r0, #0
	beq	.L3947
	ldr	r3, [r0, #0]
	mov	r1, #3
	ldr	ip, [r3, #8]
	mov	lr, pc
	bx	ip
	mov	r3, #0
	str	r3, [r4, #96]
.L3947:
	ldr	r0, [r4, #100]
	cmp	r0, #0
	blne	ay_closesong
.L3951:
	mov	r0, r4
	mov	r1, r5
	bl	_._9CAknAppUi
	b	.L3952
.L3954:
	.align	0
.L3953:
	.word	__vt_9CAknAppUi.16MEikMenuObserver
	.word	__vt_9CEikAppUi.19MCoeMessageObserver
	.word	__vt_9CEikAppUi.15MObjectProvider
	.word	__vt_15Cayfly_s60AppUi.22MEikStatusPaneObserver
	.word	__vt_9CAknAppUi.28MCoeViewDeactivationObserver
	.word	__vt_15Cayfly_s60AppUi
.L3952:
	ldmfd	sp!, {r4, r5, lr}
	bx	lr
	.section .rdata
	.align	0
.LC1:
	.ascii	"E\000:\000\000\000"
	.align	0
.LC2:
	.ascii	"S\000e\000l\000e\000c\000t\000 \000f\000i\000l\000e"
	.ascii	"\000!\000\000\000"
	.align	0
.LC3:
	.ascii	"D\000e\000v\000i\000c\000e\000M\000e\000s\000s\000a"
	.ascii	"\000g\000e\000\000\000"
	.align	0
.LC4:
	.ascii	"C\000a\000n\000'\000t\000 \000o\000p\000e\000n\000 "
	.ascii	"\000f\000i\000l\000e\000!\000\000\000"
	.align	0
.LC5:
	.ascii	"!\000!\000!\000\000\000"
.text
	.align	0
	.global	HandleCommandL__15Cayfly_s60AppUii
HandleCommandL__15Cayfly_s60AppUii:
	@ args = 0, pretend = 0, frame = 1096
	@ frame_needed = 0, current_function_anonymous_args = 0
	stmfd	sp!, {r4, r5, r6, lr}
	sub	sp, sp, #1600
	sub	sp, sp, #4
	mov	r6, r0
	ldr	r3, .L3975
	cmp	r1, r3
	beq	.L3960
	bgt	.L3973
	cmp	r1, #256
	beq	.L3958
	ldr	r3, .L3975+4
	cmp	r1, r3
	beq	.L3958
	b	.L3971
.L3976:
	.align	0
.L3975:
	.word	24577
	.word	3009
.L3973:
	ldr	r3, .L3977
	cmp	r1, r3
	beq	.L3968
	blt	.L3966
	ldr	r3, .L3977+4
	cmp	r1, r3
	beq	.L3974
	b	.L3971
.L3978:
	.align	0
.L3977:
	.word	24579
	.word	24580
.L3958:
	ldr	r3, [r6, #100]
	cmp	r3, #0
	addne	r0, r6, #100
	blne	ay_closesong
.L3959:
	mov	r0, r6
	bl	Exit__9CEikAppUi
	b	.L3974
.L3960:
	add	r0, sp, #556
	ldr	r1, .L3979
	bl	__7TPtrC16PCUs
	add	r0, sp, #1072
	add	r0, r0, #12
	add	r1, sp, #556
	mov	r2, #256
	bl	__10TBufBase16RC7TDesC16i
	add	r5, sp, #1072
	add	r5, r5, #12
	add	r0, sp, #548
	ldr	r1, .L3979
	bl	__7TPtrC16PCUs
	add	r4, sp, #548
	add	r0, sp, #540
	ldr	r1, .L3979+4
	bl	__7TPtrC16PCUs
	mov	r0, r5
	mov	r1, r4
	add	r2, sp, #540
	mov	r3, #0
	bl	RunDlgLD__23CAknFileSelectionDialogR6TDes16RC7TDesC16T2P25MAknFileSelectionObserver
	cmp	r0, #0
	beq	.L3974
	ldr	r3, [r6, #100]
	cmp	r3, #0
	addne	r0, r6, #100
	blne	ay_closesong
.L3964:
	add	r4, sp, #564
	mov	r0, r4
	add	r1, sp, #1072
	add	r1, r1, #12
	mov	r2, #520
	bl	memcpy
	ldr	r3, .L3979+8
	str	r3, [sp, #504]
	mov	r0, sp
	add	r1, sp, #580
	mov	r2, #504
	bl	memcpy
	ldmia	r4, {r0-r3}	@ load multiple
	bl	ay_initsong
	str	r0, [r6, #100]
	cmp	r0, #0
	bne	.L3974
	add	r0, sp, #532
	ldr	r1, .L3979+12
	bl	__7TPtrC16PCUs
	add	r4, sp, #532
	add	r0, sp, #524
	ldr	r1, .L3979+16
	bl	__7TPtrC16PCUs
	mov	r0, r4
	add	r1, sp, #524
	bl	InfoWinL__9CEikonEnvRC7TDesC16T1
	b	.L3974
.L3980:
	.align	0
.L3979:
	.word	.LC1
	.word	.LC2
	.word	44100
	.word	.LC3
	.word	.LC4
.L3966:
	ldr	r0, [r6, #100]
	cmp	r0, #0
	beq	.L3974
	bl	ay_startsong
	ldr	r0, [r6, #100]
	bl	ay_getsongplayer
	mov	r4, r0
	ldr	r1, [r6, #104]
	bl	SetDeviceVolume__15Cayfly_s60Audioi
	mov	r0, r4
	bl	GetDeviceVolume__15Cayfly_s60Audio
	str	r0, [r6, #104]
	b	.L3974
.L3968:
	ldr	r0, [r6, #100]
	cmp	r0, #0
	beq	.L3974
	bl	ay_stopsong
	b	.L3974
.L3971:
	add	r0, sp, #516
	ldr	r1, .L3982
	bl	__7TPtrC16PCUs
	add	r4, sp, #516
	add	r0, sp, #508
	ldr	r1, .L3982+4
	bl	__7TPtrC16PCUs
	mov	r0, r4
	add	r1, sp, #508
	bl	InfoWinL__9CEikonEnvRC7TDesC16T1
	mov	r0, #1
	bl	Panic__F16Tayfly_s60Panics
	b	.L3981
.L3983:
	.align	0
.L3982:
	.word	.LC3
	.word	.LC5
.L3981:
.L3974:
	add	sp, sp, #580
	add	sp, sp, #1024
	ldmfd	sp!, {r4, r5, r6, lr}
	bx	lr
	.align	0
	.global	HandleKeyEventL__15Cayfly_s60AppUiRC9TKeyEvent10TEventCode
HandleKeyEventL__15Cayfly_s60AppUiRC9TKeyEvent10TEventCode:
	@ args = 0, pretend = 0, frame = 0
	@ frame_needed = 0, current_function_anonymous_args = 0
	stmfd	sp!, {r4, r5, lr}
	mov	r5, r0
	cmp	r2, #1
	movne	r0, #0
	bne	.L3993
.L3985:
	ldr	r2, [r1, #0]
	ldr	r3, .L3995
	cmp	r2, r3
	bne	.L3987
	ldr	r0, [r5, #100]
	cmp	r0, #0
	beq	.L3989
	bl	ay_getsongplayer
	mov	r4, r0
	ldr	r1, [r5, #104]
	add	r1, r1, #1
	str	r1, [r5, #104]
	b	.L3994
.L3996:
	.align	0
.L3995:
	.word	63497
.L3987:
	ldr	r2, [r1, #0]
	ldr	r3, .L3998
	cmp	r2, r3
	bne	.L3989
	ldr	r0, [r5, #100]
	cmp	r0, #0
	beq	.L3989
	bl	ay_getsongplayer
	mov	r4, r0
	ldr	r3, [r5, #104]
	sub	r3, r3, #1
	str	r3, [r5, #104]
	bl	GetDeviceVolume__15Cayfly_s60Audio
	sub	r1, r0, #1
	mov	r0, r4
.L3994:
	bl	SetDeviceVolume__15Cayfly_s60Audioi
	mov	r0, r4
	bl	GetDeviceVolume__15Cayfly_s60Audio
	str	r0, [r5, #104]
.L3989:
	mov	r0, #1
.L3993:
	b	.L3997
.L3999:
	.align	0
.L3998:
	.word	63498
.L3997:
	ldmfd	sp!, {r4, r5, lr}
	bx	lr
	.align	0
	.global	HandleStatusPaneSizeChange__15Cayfly_s60AppUi
HandleStatusPaneSizeChange__15Cayfly_s60AppUi:
	@ args = 0, pretend = 0, frame = 16
	@ frame_needed = 0, current_function_anonymous_args = 0
	stmfd	sp!, {r4, r5, lr}
	sub	sp, sp, #16
	mov	r4, r0
	mov	r5, sp
	mov	r0, r5
	mov	r1, r4
	bl	ClientRect__C9CEikAppUi
	ldr	r0, [r4, #96]
	mov	r1, r5
	bl	SetRect__11CCoeControlRC5TRect
	add	sp, sp, #16
	ldmfd	sp!, {r4, r5, lr}
	bx	lr
	.section .text$Delete__t13CleanupDelete1Z11MDataSourcePv,"x"
	.linkonce discard
	.align	0
	.global	Delete__t13CleanupDelete1Z11MDataSourcePv
Delete__t13CleanupDelete1Z11MDataSourcePv:
	@ args = 0, pretend = 0, frame = 0
	@ frame_needed = 0, current_function_anonymous_args = 0
	stmfd	sp!, {lr}
	cmp	r0, #0
	ldmeqfd	sp!, {ip}
	bxeq	ip
	ldr	r3, [r0, #8]
	mov	r1, #3
	ldr	ip, [r3, #8]
	mov	lr, pc
	bx	ip
	ldmfd	sp!, {ip}
	bx	ip
	.section .text$Delete__t13CleanupDelete1Z9MDataSinkPv,"x"
	.linkonce discard
	.align	0
	.global	Delete__t13CleanupDelete1Z9MDataSinkPv
Delete__t13CleanupDelete1Z9MDataSinkPv:
	@ args = 0, pretend = 0, frame = 0
	@ frame_needed = 0, current_function_anonymous_args = 0
	stmfd	sp!, {lr}
	cmp	r0, #0
	ldmeqfd	sp!, {ip}
	bxeq	ip
	ldr	r3, [r0, #8]
	mov	r1, #3
	ldr	ip, [r3, #8]
	mov	lr, pc
	bx	ip
	ldmfd	sp!, {ip}
	bx	ip
	.section .text$__thunk_72_HandleStatusPaneSizeChange__15Cayfly_s60AppUi,"x"
	.linkonce discard
	.align	0
	.global	__thunk_72_HandleStatusPaneSizeChange__15Cayfly_s60AppUi
__thunk_72_HandleStatusPaneSizeChange__15Cayfly_s60AppUi:
	sub	r0, r0, #72
	b	HandleStatusPaneSizeChange__15Cayfly_s60AppUi
	.global	__vt_15Cayfly_s60AppUi.22MEikStatusPaneObserver
	.section .rdata$__vt_15Cayfly_s60AppUi.22MEikStatusPaneObserver,"w"
	.linkonce same_size
	.align	0
__vt_15Cayfly_s60AppUi.22MEikStatusPaneObserver:
	.word	-72
	.word	0
	.word	__thunk_72_HandleStatusPaneSizeChange__15Cayfly_s60AppUi
	.global	__vt_15Cayfly_s60AppUi
	.section .rdata$__vt_15Cayfly_s60AppUi,"w"
	.linkonce same_size
	.align	0
__vt_15Cayfly_s60AppUi:
	.word	0
	.word	0
	.word	_._15Cayfly_s60AppUi
	.word	HandleWsEventL__9CAknAppUiRC8TWsEventP11CCoeControl
	.word	PrepareToExit__9CAknAppUi
	.word	HandleScreenDeviceChangedL__9CEikAppUi
	.word	Reserved_2__9CEikAppUi
	.word	InputCapabilities__C9CCoeAppUi
	.word	HandleKeyEventL__15Cayfly_s60AppUiRC9TKeyEvent10TEventCode
	.word	HandleForegroundEventL__9CAknAppUii
	.word	HandleSwitchOnEventL__9CCoeAppUiP11CCoeControl
	.word	HandleSystemEventL__9CAknAppUiRC8TWsEvent
	.word	HandleApplicationSpecificEventL__9CEikAppUiiRC8TWsEvent
	.word	SetAndDrawFocus__9CCoeAppUii
	.word	HelpContextL__C9CCoeAppUi
	.word	ConstructL__15Cayfly_s60AppUi
	.word	HandleModelChangeL__9CEikAppUi
	.word	ProcessCommandParametersL__9CEikAppUi11TApaCommandRt4TBuf1i256RC6TDesC8
	.word	StopDisplayingMenuBar__9CEikAppUi
	.word	HandleCommandL__15Cayfly_s60AppUii
	.word	ProcessMessageL__9CEikAppUiG4TUidRC6TDesC8
	.word	OpenFileL__9CEikAppUiRC7TDesC16
	.word	CreateFileL__9CEikAppUiRC7TDesC16
	.word	HandleError__9CAknAppUiiRC14SExtendedErrorR6TDes16T3
	.word	HandleResourceChangeL__9CEikAppUii
	.word	ValidFileType__C9CEikAppUiG4TUid
	.word	Reserved_3__9CEikAppUi
	.word	Reserved_4__9CEikAppUi
	.word	Reserved_MtsmPosition__9CAknAppUi
	.word	Reserved_MtsmObject__9CAknAppUi
	.section .text$__thunk_72_HandleStatusPaneSizeChange__9CAknAppUi,"x"
	.linkonce discard
	.align	0
	.global	__thunk_72_HandleStatusPaneSizeChange__9CAknAppUi
__thunk_72_HandleStatusPaneSizeChange__9CAknAppUi:
	sub	r0, r0, #72
	b	HandleStatusPaneSizeChange__9CAknAppUi
	.global	__vt_9CAknAppUi.22MEikStatusPaneObserver
	.section .rdata$__vt_9CAknAppUi.22MEikStatusPaneObserver,"w"
	.linkonce same_size
	.align	0
__vt_9CAknAppUi.22MEikStatusPaneObserver:
	.word	-72
	.word	0
	.word	__thunk_72_HandleStatusPaneSizeChange__9CAknAppUi
	.section .text$__thunk_76_HandleViewDeactivation__9CAknAppUiRC10TVwsViewIdT1,"x"
	.linkonce discard
	.align	0
	.global	__thunk_76_HandleViewDeactivation__9CAknAppUiRC10TVwsViewIdT1
__thunk_76_HandleViewDeactivation__9CAknAppUiRC10TVwsViewIdT1:
	sub	r0, r0, #76
	b	HandleViewDeactivation__9CAknAppUiRC10TVwsViewIdT1
	.global	__vt_9CAknAppUi.28MCoeViewDeactivationObserver
	.section .rdata$__vt_9CAknAppUi.28MCoeViewDeactivationObserver,"w"
	.linkonce same_size
	.align	0
__vt_9CAknAppUi.28MCoeViewDeactivationObserver:
	.word	-76
	.word	0
	.word	__thunk_76_HandleViewDeactivation__9CAknAppUiRC10TVwsViewIdT1
	.word	MCoeViewDeactivationObserver_Reserved_1__28MCoeViewDeactivationObserver
	.word	MCoeViewDeactivationObserver_Reserved_2__28MCoeViewDeactivationObserver
	.section .text$__thunk_20_ProcessCommandL__9CAknAppUii,"x"
	.linkonce discard
	.align	0
	.global	__thunk_20_ProcessCommandL__9CAknAppUii
__thunk_20_ProcessCommandL__9CAknAppUii:
	sub	r0, r0, #20
	b	ProcessCommandL__9CAknAppUii
	.section .text$__thunk_20_HandleSideBarMenuL__9CEikAppUiiRC6TPointiPC15CEikHotKeyTable,"x"
	.linkonce discard
	.align	0
	.global	__thunk_20_HandleSideBarMenuL__9CEikAppUiiRC6TPointiPC15CEikHotKeyTable
__thunk_20_HandleSideBarMenuL__9CEikAppUiiRC6TPointiPC15CEikHotKeyTable:
	sub	r0, r0, #20
	b	HandleSideBarMenuL__9CEikAppUiiRC6TPointiPC15CEikHotKeyTable
	.section .text$__thunk_20_SetEmphasis__9CEikAppUiP11CCoeControli,"x"
	.linkonce discard
	.align	0
	.global	__thunk_20_SetEmphasis__9CEikAppUiP11CCoeControli
__thunk_20_SetEmphasis__9CEikAppUiP11CCoeControli:
	sub	r0, r0, #20
	b	SetEmphasis__9CEikAppUiP11CCoeControli
	.global	__vt_9CAknAppUi.16MEikMenuObserver
	.section .rdata$__vt_9CAknAppUi.16MEikMenuObserver,"w"
	.linkonce same_size
	.align	0
__vt_9CAknAppUi.16MEikMenuObserver:
	.word	-20
	.word	0
	.word	__thunk_20_ProcessCommandL__9CAknAppUii
	.word	CreateCustomCommandControlL__19MEikCommandObserveri
	.word	HandleAttemptDimmedSelectionL__16MEikMenuObserveri
	.word	CheckHotKeyNotDimmedL__16MEikMenuObserveri
	.word	RestoreMenuL__16MEikMenuObserverP11CCoeControliQ216MEikMenuObserver9TMenuType
	.word	DynInitMenuPaneL__16MEikMenuObserveriP12CEikMenuPane
	.word	DynInitMenuBarL__16MEikMenuObserveriP11CEikMenuBar
	.word	__thunk_20_HandleSideBarMenuL__9CEikAppUiiRC6TPointiPC15CEikHotKeyTable
	.word	OfferKeyToAppL__16MEikMenuObserverRC9TKeyEvent10TEventCode
	.word	__thunk_20_SetEmphasis__9CEikAppUiP11CCoeControli
	.word	Reserved_1_MenuObserver__16MEikMenuObserver
	.global	__vt_9CAknAppUi
	.section .rdata$__vt_9CAknAppUi,"w"
	.linkonce same_size
	.align	0
__vt_9CAknAppUi:
	.word	0
	.word	0
	.word	_._9CAknAppUi
	.word	HandleWsEventL__9CAknAppUiRC8TWsEventP11CCoeControl
	.word	PrepareToExit__9CAknAppUi
	.word	HandleScreenDeviceChangedL__9CEikAppUi
	.word	Reserved_2__9CEikAppUi
	.word	InputCapabilities__C9CCoeAppUi
	.word	HandleKeyEventL__9CCoeAppUiRC9TKeyEvent10TEventCode
	.word	HandleForegroundEventL__9CAknAppUii
	.word	HandleSwitchOnEventL__9CCoeAppUiP11CCoeControl
	.word	HandleSystemEventL__9CAknAppUiRC8TWsEvent
	.word	HandleApplicationSpecificEventL__9CEikAppUiiRC8TWsEvent
	.word	SetAndDrawFocus__9CCoeAppUii
	.word	HelpContextL__C9CCoeAppUi
	.word	ConstructL__9CEikAppUi
	.word	HandleModelChangeL__9CEikAppUi
	.word	ProcessCommandParametersL__9CEikAppUi11TApaCommandRt4TBuf1i256RC6TDesC8
	.word	StopDisplayingMenuBar__9CEikAppUi
	.word	HandleCommandL__9CEikAppUii
	.word	ProcessMessageL__9CEikAppUiG4TUidRC6TDesC8
	.word	OpenFileL__9CEikAppUiRC7TDesC16
	.word	CreateFileL__9CEikAppUiRC7TDesC16
	.word	HandleError__9CAknAppUiiRC14SExtendedErrorR6TDes16T3
	.word	HandleResourceChangeL__9CEikAppUii
	.word	ValidFileType__C9CEikAppUiG4TUid
	.word	Reserved_3__9CEikAppUi
	.word	Reserved_4__9CEikAppUi
	.word	Reserved_MtsmPosition__9CAknAppUi
	.word	Reserved_MtsmObject__9CAknAppUi
	.global	__vt_22MEikStatusPaneObserver
	.section .rdata$__vt_22MEikStatusPaneObserver,"w"
	.linkonce same_size
	.align	0
__vt_22MEikStatusPaneObserver:
	.word	0
	.word	0
	.word	__pure_virtual
	.section .text$__thunk_28_MopSupplyObject__9CEikAppUiG8TTypeUid,"x"
	.linkonce discard
	.align	0
	.global	__thunk_28_MopSupplyObject__9CEikAppUiG8TTypeUid
__thunk_28_MopSupplyObject__9CEikAppUiG8TTypeUid:
	sub	r0, r0, #28
	b	MopSupplyObject__9CEikAppUiG8TTypeUid
	.section .text$__thunk_28_MopNext__9CEikAppUi,"x"
	.linkonce discard
	.align	0
	.global	__thunk_28_MopNext__9CEikAppUi
__thunk_28_MopNext__9CEikAppUi:
	sub	r0, r0, #28
	b	MopNext__9CEikAppUi
	.global	__vt_9CEikAppUi.15MObjectProvider
	.section .rdata$__vt_9CEikAppUi.15MObjectProvider,"w"
	.linkonce same_size
	.align	0
__vt_9CEikAppUi.15MObjectProvider:
	.word	-28
	.word	0
	.word	__thunk_28_MopSupplyObject__9CEikAppUiG8TTypeUid
	.word	__thunk_28_MopNext__9CEikAppUi
	.section .text$__thunk_24_HandleMessageL__9CEikAppUiUlG4TUidRC6TDesC8,"x"
	.linkonce discard
	.align	0
	.global	__thunk_24_HandleMessageL__9CEikAppUiUlG4TUidRC6TDesC8
__thunk_24_HandleMessageL__9CEikAppUiUlG4TUidRC6TDesC8:
	sub	r0, r0, #24
	b	HandleMessageL__9CEikAppUiUlG4TUidRC6TDesC8
	.global	__vt_9CEikAppUi.19MCoeMessageObserver
	.section .rdata$__vt_9CEikAppUi.19MCoeMessageObserver,"w"
	.linkonce same_size
	.align	0
__vt_9CEikAppUi.19MCoeMessageObserver:
	.word	-24
	.word	0
	.word	__thunk_24_HandleMessageL__9CEikAppUiUlG4TUidRC6TDesC8
	.word	MCoeMessageObserver_Reserved_1__19MCoeMessageObserver
	.word	MCoeMessageObserver_Reserved_2__19MCoeMessageObserver
	.global	__vt_28MCoeViewDeactivationObserver
	.section .rdata$__vt_28MCoeViewDeactivationObserver,"w"
	.linkonce same_size
	.align	0
__vt_28MCoeViewDeactivationObserver:
	.word	0
	.word	0
	.word	__pure_virtual
	.word	MCoeViewDeactivationObserver_Reserved_1__28MCoeViewDeactivationObserver
	.word	MCoeViewDeactivationObserver_Reserved_2__28MCoeViewDeactivationObserver
	.section .text$Panic__F16Tayfly_s60Panics,"x"
	.linkonce discard
	.align	0
	.global	Panic__F16Tayfly_s60Panics
Panic__F16Tayfly_s60Panics:
	@ args = 0, pretend = 0, frame = 0
	@ frame_needed = 0, current_function_anonymous_args = 0
	@ I don't think this function clobbers lr
	mov	r1, r0
	ldr	r0, .L4010
	b	Panic__4UserRC7TDesC16i
.L4011:
	.align	0
.L4010:
	.word	applicationName.3874
