@ Generated by gcc 2.9-psion-98r2 (Symbian build 539) for ARM/pe
	.file	"ayfly_s60Document.cpp"
.gcc2_compiled.:
	.section .rdata
	.align	0
.LC0:
	.ascii	"%1c%1c%1c%1c\000"
	.align	0
applicationName.3874:
	.word	9
	.ascii	"a\000y\000f\000l\000y\000_\000s\0006\0000\000\000\000"
.text
	.align	0
	.global	NewL__18Cayfly_s60DocumentR15CEikApplication
NewL__18Cayfly_s60DocumentR15CEikApplication:
	@ args = 0, pretend = 0, frame = 0
	@ frame_needed = 0, current_function_anonymous_args = 0
	stmfd	sp!, {r4, lr}
	bl	NewLC__18Cayfly_s60DocumentR15CEikApplication
	mov	r4, r0
	bl	Pop__12CleanupStack
	mov	r0, r4
	ldmfd	sp!, {r4, lr}
	bx	lr
	.align	0
	.global	NewLC__18Cayfly_s60DocumentR15CEikApplication
NewLC__18Cayfly_s60DocumentR15CEikApplication:
	@ args = 0, pretend = 0, frame = 0
	@ frame_needed = 0, current_function_anonymous_args = 0
	stmfd	sp!, {r4, r5, lr}
	mov	r5, r0
	mov	r0, #36
	bl	newL__5CBaseUi
	subs	r4, r0, #0
	beq	.L3928
	mov	r0, r4
	mov	r1, r5
	bl	__18Cayfly_s60DocumentR15CEikApplication
	mov	r4, r0
.L3928:
	mov	r0, r4
	bl	PushL__12CleanupStackP5CBase
	mov	r0, r4
	bl	ConstructL__18Cayfly_s60Document
	mov	r0, r4
	ldmfd	sp!, {r4, r5, lr}
	bx	lr
	.align	0
	.global	ConstructL__18Cayfly_s60Document
ConstructL__18Cayfly_s60Document:
	@ args = 0, pretend = 0, frame = 0
	@ frame_needed = 0, current_function_anonymous_args = 0
	bx	lr
	.align	0
	.global	__18Cayfly_s60DocumentR15CEikApplication
__18Cayfly_s60DocumentR15CEikApplication:
	@ args = 0, pretend = 0, frame = 0
	@ frame_needed = 0, current_function_anonymous_args = 0
	stmfd	sp!, {r4, lr}
	mov	r4, r0
	bl	__12CAknDocumentR15CEikApplication
	ldr	r3, .L3935
	str	r3, [r4, #0]
	mov	r0, r4
	b	.L3934
.L3936:
	.align	0
.L3935:
	.word	__vt_18Cayfly_s60Document
.L3934:
	ldmfd	sp!, {r4, lr}
	bx	lr
	.align	0
	.global	_._18Cayfly_s60Document
_._18Cayfly_s60Document:
	@ args = 0, pretend = 0, frame = 0
	@ frame_needed = 0, current_function_anonymous_args = 0
	@ I don't think this function clobbers lr
	ldr	r3, .L3941
	str	r3, [r0, #0]
	b	_._12CEikDocument
.L3942:
	.align	0
.L3941:
	.word	__vt_18Cayfly_s60Document
	.align	0
	.global	CreateAppUiL__18Cayfly_s60Document
CreateAppUiL__18Cayfly_s60Document:
	@ args = 0, pretend = 0, frame = 0
	@ frame_needed = 0, current_function_anonymous_args = 0
	stmfd	sp!, {lr}
	mov	r0, #108
	bl	newL__5CBaseUi
	cmp	r0, #0
	ldmeqfd	sp!, {ip}
	bxeq	ip
	ldmfd	sp!, {lr}
	b	__15Cayfly_s60AppUi
	.section .text$Delete__t13CleanupDelete1Z11MDataSourcePv,"x"
	.linkonce discard
	.align	0
	.global	Delete__t13CleanupDelete1Z11MDataSourcePv
Delete__t13CleanupDelete1Z11MDataSourcePv:
	@ args = 0, pretend = 0, frame = 0
	@ frame_needed = 0, current_function_anonymous_args = 0
	stmfd	sp!, {lr}
	cmp	r0, #0
	ldmeqfd	sp!, {ip}
	bxeq	ip
	ldr	r3, [r0, #8]
	mov	r1, #3
	ldr	ip, [r3, #8]
	mov	lr, pc
	bx	ip
	ldmfd	sp!, {ip}
	bx	ip
	.section .text$Delete__t13CleanupDelete1Z9MDataSinkPv,"x"
	.linkonce discard
	.align	0
	.global	Delete__t13CleanupDelete1Z9MDataSinkPv
Delete__t13CleanupDelete1Z9MDataSinkPv:
	@ args = 0, pretend = 0, frame = 0
	@ frame_needed = 0, current_function_anonymous_args = 0
	stmfd	sp!, {lr}
	cmp	r0, #0
	ldmeqfd	sp!, {ip}
	bxeq	ip
	ldr	r3, [r0, #8]
	mov	r1, #3
	ldr	ip, [r3, #8]
	mov	lr, pc
	bx	ip
	ldmfd	sp!, {ip}
	bx	ip
	.global	__vt_18Cayfly_s60Document
	.section .rdata$__vt_18Cayfly_s60Document,"w"
	.linkonce same_size
	.align	0
__vt_18Cayfly_s60Document:
	.word	0
	.word	0
	.word	_._18Cayfly_s60Document
	.word	NewDocumentL__12CEikDocument
	.word	CreateFileStoreLC__12CEikDocumentR3RFsRC7TDesC16
	.word	GlassPictureL__12CApaDocument
	.word	EditL__12CEikDocumentP23MApaEmbeddedDocObserveri
	.word	PrintL__12CEikDocumentRC12CStreamStore
	.word	SaveL__12CEikDocument
	.word	StoreL__C12CEikDocumentR12CStreamStoreR17CStreamDictionary
	.word	RestoreL__12CEikDocumentRC12CStreamStoreRC17CStreamDictionary
	.word	DetachFromStoreL__12CApaDocumentQ28CPicture7TDetach
	.word	ExternalizeL__C12CEikDocumentR12RWriteStream
	.word	IsEmpty__C12CEikDocument
	.word	ValidatePasswordL__C12CApaDocument
	.word	Capability__C12CApaDocument
	.word	HasChanged__C12CEikDocument
	.word	Reserved_1__12CEikDocument
	.word	Reserved_2__12CEikDocument
	.word	CreateAppUiL__18Cayfly_s60Document
	.word	OpenFileL__12CAknDocumentiRC7TDesC16R3RFs
	.word	UpdateTaskNameL__12CEikDocumentP19CApaWindowGroupName
	.word	SaveL__12CEikDocumentQ213MSaveObserver9TSaveType
	.section .text$DetachFromStoreL__12CApaDocumentQ28CPicture7TDetach,"x"
	.linkonce discard
	.align	0
	.global	DetachFromStoreL__12CApaDocumentQ28CPicture7TDetach
DetachFromStoreL__12CApaDocumentQ28CPicture7TDetach:
	@ args = 0, pretend = 0, frame = 0
	@ frame_needed = 0, current_function_anonymous_args = 0
	bx	lr
