@ Generated by gcc 2.9-psion-98r2 (Symbian build 539) for ARM/pe
	.file	"speccy.cpp"
.gcc2_compiled.:
	.section .rdata
	.align	0
.LC0:
	.ascii	"%1c%1c%1c%1c\000"
.text
	.align	0
	.global	readMemory__FP16_z80_cpu_contextUsiPv
readMemory__FP16_z80_cpu_contextUsiPv:
	@ args = 0, pretend = 0, frame = 0
	@ frame_needed = 0, current_function_anonymous_args = 0
	mov	r1, r1, asl #16
	ldr	r3, [r3, #1588]
	ldrb	r0, [r3, r1, lsr #16]	@ zero_extendqisi2
	bx	lr
	.align	0
	.global	writeMemory__FP16_z80_cpu_contextUsUcPv
writeMemory__FP16_z80_cpu_contextUsUcPv:
	@ args = 0, pretend = 0, frame = 0
	@ frame_needed = 0, current_function_anonymous_args = 0
	mov	r1, r1, asl #16
	ldr	r3, [r3, #1588]
	strb	r2, [r3, r1, lsr #16]
	bx	lr
	.align	0
	.global	readPort__FP16_z80_cpu_contextUsPv
readPort__FP16_z80_cpu_contextUsPv:
	@ args = 0, pretend = 0, frame = 0
	@ frame_needed = 0, current_function_anonymous_args = 0
	mov	r1, r1, asl #16
	add	r2, r2, #1584
	add	r2, r2, #12
	ldrb	r0, [r2, r1, lsr #16]	@ zero_extendqisi2
	bx	lr
	.align	0
	.global	writePort__FP16_z80_cpu_contextUsUcPv
writePort__FP16_z80_cpu_contextUsUcPv:
	@ args = 0, pretend = 0, frame = 0
	@ frame_needed = 0, current_function_anonymous_args = 0
	stmfd	sp!, {r4, r5, lr}
	mov	r1, r1, asl #16
	and	r4, r2, #255
	mov	lr, r3
	add	r5, lr, #1584
	add	r5, r5, #12
	mov	r2, r1, lsr #16
	cmn	r1, #196608
	beq	.L3085
	and	r3, r2, #49152
	cmp	r3, #49152
	bne	.L3084
.L3085:
	ldr	r3, .L3090
	strh	r4, [lr, r3]	@ movhi   ;; CYGNUS LOCAL nickc
	b	.L3086
.L3091:
	.align	0
.L3090:
	.word	67156
.L3084:
	ldr	r3, .L3092
	cmp	r2, r3
	beq	.L3088
	and	r3, r2, #49152
	cmp	r3, #32768
	bne	.L3087
.L3088:
	ldr	r3, .L3092+4
	ldr	r0, [lr, r3]
	ldr	ip, [r0, #16]
	ldr	r3, .L3092+8
	ldrb	r1, [lr, r3]	@ zero_extendqisi2
	mov	r2, r4
	ldr	ip, [ip, #20]
	mov	lr, pc
	bx	ip
	ldr	r3, .L3092+12
	strb	r4, [r5, r3]
	b	.L3086
.L3093:
	.align	0
.L3092:
	.word	49149
	.word	67136
	.word	67156
	.word	65533
.L3087:
	strb	r4, [r5, r2]
.L3086:
	ldmfd	sp!, {r4, r5, lr}
	bx	lr
	.align	0
	.global	readInt__FP16_z80_cpu_contextPv
readInt__FP16_z80_cpu_contextPv:
	@ args = 0, pretend = 0, frame = 0
	@ frame_needed = 0, current_function_anonymous_args = 0
	mov	r0, #255
	bx	lr
	.align	0
	.global	ay_sys_initz80__FR10AYSongInfo
ay_sys_initz80__FR10AYSongInfo:
	@ args = 0, pretend = 0, frame = 0
	@ frame_needed = 0, current_function_anonymous_args = 0
	ldr	r3, .L3098
	ldr	r3, [r0, r3]
	cmp	r3, #0
	beq	.L3096
	ldr	r3, .L3098+4
	mov	r2, #255	@ movhi
	strh	r2, [r0, r3]	@ movhi   ;; CYGNUS LOCAL nickc
	mov	r0, #1
	bx	lr
.L3099:
	.align	0
.L3098:
	.word	67140
	.word	67156
.L3096:
	mov	r0, #0
	bx	lr
	.align	0
	.global	ay_sys_resetz80__FR10AYSongInfo
ay_sys_resetz80__FR10AYSongInfo:
	@ args = 0, pretend = 0, frame = 0
	@ frame_needed = 0, current_function_anonymous_args = 0
	bx	lr
	.align	0
	.global	ay_sys_shutdownz80__FR10AYSongInfo
ay_sys_shutdownz80__FR10AYSongInfo:
	@ args = 0, pretend = 0, frame = 0
	@ frame_needed = 0, current_function_anonymous_args = 0
	stmfd	sp!, {r4, lr}
	mov	r4, r0
	bl	ay_sys_resetz80__FR10AYSongInfo
	ldr	r0, [r4, #1588]
	mov	r1, #0
	mov	r2, #65536
	bl	memset
	add	r0, r4, #1584
	add	r0, r0, #12
	mov	r1, #0
	mov	r2, #65536
	bl	memset
	ldmfd	sp!, {r4, lr}
	bx	lr
	.align	0
	.global	ay_sys_z80exec__FR10AYSongInfo
ay_sys_z80exec__FR10AYSongInfo:
	@ args = 0, pretend = 0, frame = 0
	@ frame_needed = 0, current_function_anonymous_args = 0
	stmfd	sp!, {lr}
	ldr	r3, [r0, #1576]
	cmp	r3, #0
	beq	.L3106
	mov	lr, pc
	bx	r3
	ldmfd	sp!, {ip}
	bx	ip
.L3106:
	b	.L3106
	.section .text$Delete__t13CleanupDelete1Z11MDataSourcePv,"x"
	.linkonce discard
	.align	0
	.global	Delete__t13CleanupDelete1Z11MDataSourcePv
Delete__t13CleanupDelete1Z11MDataSourcePv:
	@ args = 0, pretend = 0, frame = 0
	@ frame_needed = 0, current_function_anonymous_args = 0
	stmfd	sp!, {lr}
	cmp	r0, #0
	ldmeqfd	sp!, {ip}
	bxeq	ip
	ldr	r3, [r0, #8]
	mov	r1, #3
	ldr	ip, [r3, #8]
	mov	lr, pc
	bx	ip
	ldmfd	sp!, {ip}
	bx	ip
	.section .text$Delete__t13CleanupDelete1Z9MDataSinkPv,"x"
	.linkonce discard
	.align	0
	.global	Delete__t13CleanupDelete1Z9MDataSinkPv
Delete__t13CleanupDelete1Z9MDataSinkPv:
	@ args = 0, pretend = 0, frame = 0
	@ frame_needed = 0, current_function_anonymous_args = 0
	stmfd	sp!, {lr}
	cmp	r0, #0
	ldmeqfd	sp!, {ip}
	bxeq	ip
	ldr	r3, [r0, #8]
	mov	r1, #3
	ldr	ip, [r3, #8]
	mov	lr, pc
	bx	ip
	ldmfd	sp!, {ip}
	bx	ip
