@ Generated by gcc 2.9-psion-98r2 (Symbian build 539) for ARM/pe
	.file	"z80ex.cpp"
.gcc2_compiled.:
.text
	.align	0
op_0x00__FP16_z80_cpu_context:
	@ args = 0, pretend = 0, frame = 0
	@ frame_needed = 0, current_function_anonymous_args = 0
	bx	lr
	.align	0
op_0x01__FP16_z80_cpu_context:
	@ args = 0, pretend = 0, frame = 0
	@ frame_needed = 0, current_function_anonymous_args = 0
	stmfd	sp!, {r4, r5, r6, lr}
	mov	r4, r0
	ldrb	r3, [r4, #88]	@ zero_extendqisi2
	cmp	r3, #0
	beq	.L4
	ldr	r1, [r4, #136]
	ldr	ip, [r4, #132]
	mov	lr, pc
	bx	ip
	b	.L5
.L4:
	ldrh	r1, [r4, #52]	@ movhi
	add	r3, r1, #1
	strh	r3, [r4, #52]	@ movhi   ;; CYGNUS LOCAL nickc
	mov	r1, r1, asl #16
	mov	r0, r4
	mov	r1, r1, lsr #16
	mov	r2, #0
	ldr	r3, [r4, #120]
	ldr	ip, [r4, #116]
	mov	lr, pc
	bx	ip
.L5:
	strb	r0, [r4, #140]
	ldrb	r3, [r4, #88]	@ zero_extendqisi2
	cmp	r3, #0
	beq	.L6
	mov	r0, r4
	ldr	r1, [r4, #136]
	ldr	ip, [r4, #132]
	mov	lr, pc
	bx	ip
	b	.L7
.L6:
	ldrh	r1, [r4, #52]	@ movhi
	add	r3, r1, #1
	strh	r3, [r4, #52]	@ movhi   ;; CYGNUS LOCAL nickc
	mov	r1, r1, asl #16
	mov	r0, r4
	mov	r1, r1, lsr #16
	mov	r2, #0
	ldr	r3, [r4, #120]
	ldr	ip, [r4, #116]
	mov	lr, pc
	bx	ip
.L7:
	strb	r0, [r4, #141]
	ldrb	r5, [r4, #140]	@ zero_extendqisi2
	ldrb	r6, [r4, #141]	@ zero_extendqisi2
	orr	r6, r5, r6, asl #8
	strh	r6, [r4, #4]	@ movhi   ;; CYGNUS LOCAL nickc
	ldmfd	sp!, {r4, r5, r6, lr}
	bx	lr
	.align	0
op_0x02__FP16_z80_cpu_context:
	@ args = 0, pretend = 0, frame = 0
	@ frame_needed = 0, current_function_anonymous_args = 0
	stmfd	sp!, {lr}
	mov	ip, r0
	ldrb	r3, [ip, #1]
	strb	r3, [ip, #148]
	strb	r3, [ip, #61]
	ldrb	r3, [ip, #4]
	add	r3, r3, #1
	strb	r3, [ip, #60]
	ldrb	r3, [ip, #4]	@ zero_extendqisi2
	ldrb	r1, [ip, #5]	@ zero_extendqisi2
	orr	r1, r3, r1, asl #8
	ldrb	r2, [ip, #148]	@ zero_extendqisi2
	ldr	r3, [ip, #128]
	ldr	ip, [ip, #124]
	mov	lr, pc
	bx	ip
	ldmfd	sp!, {ip}
	bx	ip
	.align	0
op_0x03__FP16_z80_cpu_context:
	@ args = 0, pretend = 0, frame = 0
	@ frame_needed = 0, current_function_anonymous_args = 0
	ldrh	r3, [r0, #4]	@ movhi
	add	r3, r3, #1
	strh	r3, [r0, #4]	@ movhi   ;; CYGNUS LOCAL nickc
	bx	lr
	.align	0
op_0x04__FP16_z80_cpu_context:
	@ args = 0, pretend = 0, frame = 0
	@ frame_needed = 0, current_function_anonymous_args = 0
	ldrb	r2, [r0, #5]
	add	r2, r2, #1
	strb	r2, [r0, #5]
	ldrb	r3, [r0, #0]
	and	r3, r3, #1
	ldrb	r1, [r0, #5]	@ zero_extendqisi2
	cmp	r1, #128
	movne	ip, #0
	moveq	ip, #1
	orr	ip, r3, ip, asl #2
	ldr	r3, .L17
	ldrb	r1, [r3, r1]	@ zero_extendqisi2
	tst	r2, #15
	bne	.L14
	orr	r3, r1, #16
	orr	r1, ip, r3
	b	.L15
.L18:
	.align	0
.L17:
	.word	sz53_table
.L14:
	orr	r1, ip, r1
.L15:
	strb	r1, [r0, #0]
	bx	lr
	.align	0
op_0x05__FP16_z80_cpu_context:
	@ args = 0, pretend = 0, frame = 0
	@ frame_needed = 0, current_function_anonymous_args = 0
	ldrb	r3, [r0, #0]
	and	r3, r3, #1
	ldrb	ip, [r0, #5]
	tst	ip, #15
	orreq	r3, r3, #18
.L20:
	orrne	r3, r3, #2
.L21:
	strb	r3, [r0, #0]
	ldrb	r3, [r0, #5]
	sub	r3, r3, #1
	strb	r3, [r0, #5]
	ldr	r3, .L25
	ldrb	r2, [r0, #5]	@ zero_extendqisi2
	ldrb	r1, [r3, r2]	@ zero_extendqisi2
	ldrb	r3, [r0, #0]	@ zero_extendqisi2
	cmp	r2, #127
	orreq	r3, r3, #4
.L22:
	orr	r3, r3, r1
	strb	r3, [r0, #0]
	bx	lr
.L26:
	.align	0
.L25:
	.word	sz53_table
	.align	0
op_0x06__FP16_z80_cpu_context:
	@ args = 0, pretend = 0, frame = 0
	@ frame_needed = 0, current_function_anonymous_args = 0
	stmfd	sp!, {r4, lr}
	mov	r4, r0
	ldrb	r3, [r4, #88]	@ zero_extendqisi2
	cmp	r3, #0
	beq	.L28
	ldr	r1, [r4, #136]
	ldr	ip, [r4, #132]
	mov	lr, pc
	bx	ip
	b	.L29
.L28:
	ldrh	r1, [r4, #52]	@ movhi
	add	r3, r1, #1
	strh	r3, [r4, #52]	@ movhi   ;; CYGNUS LOCAL nickc
	mov	r1, r1, asl #16
	mov	r0, r4
	mov	r1, r1, lsr #16
	mov	r2, #0
	ldr	r3, [r4, #120]
	ldr	ip, [r4, #116]
	mov	lr, pc
	bx	ip
.L29:
	strb	r0, [r4, #148]
	strb	r0, [r4, #5]
	ldmfd	sp!, {r4, lr}
	bx	lr
	.align	0
op_0x07__FP16_z80_cpu_context:
	@ args = 0, pretend = 0, frame = 0
	@ frame_needed = 0, current_function_anonymous_args = 0
	ldrb	r3, [r0, #1]
	mov	r2, r3, asl #1
	orr	r2, r2, r3, lsr #7
	strb	r2, [r0, #1]
	ldrb	r3, [r0, #0]
	and	r3, r3, #196
	and	r2, r2, #41
	orr	r3, r3, r2
	strb	r3, [r0, #0]
	bx	lr
	.align	0
op_0x08__FP16_z80_cpu_context:
	@ args = 0, pretend = 0, frame = 4
	@ frame_needed = 0, current_function_anonymous_args = 0
	sub	sp, sp, #4
	ldrb	r3, [r0, #0]	@ zero_extendqisi2
	ldrb	r1, [r0, #1]	@ zero_extendqisi2
	orr	r3, r3, r1, asl #8
	ldrb	r1, [r0, #16]	@ zero_extendqisi2
	ldrb	r2, [r0, #17]	@ zero_extendqisi2
	orr	r2, r1, r2, asl #8
	strh	r2, [r0, #0]	@ movhi   ;; CYGNUS LOCAL nickc
	strh	r3, [r0, #16]	@ movhi   ;; CYGNUS LOCAL nickc
	add	sp, sp, #4
	bx	lr
	.align	0
op_0x09__FP16_z80_cpu_context:
	@ args = 0, pretend = 0, frame = 0
	@ frame_needed = 0, current_function_anonymous_args = 0
	stmfd	sp!, {lr}
	mov	ip, r0
	ldrb	r1, [ip, #12]	@ zero_extendqisi2
	ldrb	r3, [ip, #13]	@ zero_extendqisi2
	orr	r1, r1, r3, asl #8
	ldrb	r3, [ip, #4]	@ zero_extendqisi2
	ldrb	r2, [ip, #5]	@ zero_extendqisi2
	orr	r3, r3, r2, asl #8
	add	r1, r1, r3
	ldrh	r0, [ip, #12]	@ movhi
	and	r3, r0, #2048
	ldrh	r2, [ip, #4]	@ movhi
	and	r2, r2, #2048
	cmp	r2, #0
	movne	r2, #2
	moveq	r2, #0
	cmp	r3, #0
	orrne	r2, r2, #1
	and	r3, r1, #2048
	mov	r3, r3, lsr #9
	orr	r2, r2, r3
	and	r2, r2, #255
	add	r0, r0, #1
	strh	r0, [ip, #60]	@ movhi   ;; CYGNUS LOCAL nickc
	strh	r1, [ip, #12]	@ movhi   ;; CYGNUS LOCAL nickc
	ldrb	r3, [ip, #0]
	and	lr, r3, #196
	mov	r0, r1, lsr #8
	and	r0, r0, #40
	ldr	r3, .L40
	ldrb	r2, [r3, r2]	@ zero_extendqisi2
	tst	r1, #65536
	beq	.L36
	orr	r3, r0, #1
	orr	r1, lr, r3
	b	.L39
.L41:
	.align	0
.L40:
	.word	halfcarry_add_table
.L36:
	orr	r1, lr, r0
.L39:
	orr	r1, r1, r2
	strb	r1, [ip, #0]
	ldmfd	sp!, {ip}
	bx	ip
	.align	0
op_0x0a__FP16_z80_cpu_context:
	@ args = 0, pretend = 0, frame = 0
	@ frame_needed = 0, current_function_anonymous_args = 0
	stmfd	sp!, {r4, lr}
	mov	r4, r0
	ldrb	r3, [r4, #4]	@ zero_extendqisi2
	ldrb	r1, [r4, #5]	@ zero_extendqisi2
	orr	r1, r3, r1, asl #8
	mov	r2, #0
	ldr	r3, [r4, #120]
	ldr	ip, [r4, #116]
	mov	lr, pc
	bx	ip
	strb	r0, [r4, #148]
	strb	r0, [r4, #1]
	ldrh	r3, [r4, #4]	@ movhi
	add	r3, r3, #1
	strh	r3, [r4, #60]	@ movhi   ;; CYGNUS LOCAL nickc
	ldmfd	sp!, {r4, lr}
	bx	lr
	.align	0
op_0x0b__FP16_z80_cpu_context:
	@ args = 0, pretend = 0, frame = 0
	@ frame_needed = 0, current_function_anonymous_args = 0
	ldrh	r3, [r0, #4]	@ movhi
	sub	r3, r3, #1
	strh	r3, [r0, #4]	@ movhi   ;; CYGNUS LOCAL nickc
	bx	lr
	.align	0
op_0x0c__FP16_z80_cpu_context:
	@ args = 0, pretend = 0, frame = 0
	@ frame_needed = 0, current_function_anonymous_args = 0
	ldrb	r2, [r0, #4]
	add	r2, r2, #1
	strb	r2, [r0, #4]
	ldrb	r3, [r0, #0]
	and	r3, r3, #1
	ldrb	r1, [r0, #4]	@ zero_extendqisi2
	cmp	r1, #128
	movne	ip, #0
	moveq	ip, #1
	orr	ip, r3, ip, asl #2
	ldr	r3, .L50
	ldrb	r1, [r3, r1]	@ zero_extendqisi2
	tst	r2, #15
	bne	.L47
	orr	r3, r1, #16
	orr	r1, ip, r3
	b	.L48
.L51:
	.align	0
.L50:
	.word	sz53_table
.L47:
	orr	r1, ip, r1
.L48:
	strb	r1, [r0, #0]
	bx	lr
	.align	0
op_0x0d__FP16_z80_cpu_context:
	@ args = 0, pretend = 0, frame = 0
	@ frame_needed = 0, current_function_anonymous_args = 0
	ldrb	r3, [r0, #0]
	and	r3, r3, #1
	ldrb	ip, [r0, #4]
	tst	ip, #15
	orreq	r3, r3, #18
.L53:
	orrne	r3, r3, #2
.L54:
	strb	r3, [r0, #0]
	ldrb	r3, [r0, #4]
	sub	r3, r3, #1
	strb	r3, [r0, #4]
	ldr	r3, .L58
	ldrb	r2, [r0, #4]	@ zero_extendqisi2
	ldrb	r1, [r3, r2]	@ zero_extendqisi2
	ldrb	r3, [r0, #0]	@ zero_extendqisi2
	cmp	r2, #127
	orreq	r3, r3, #4
.L55:
	orr	r3, r3, r1
	strb	r3, [r0, #0]
	bx	lr
.L59:
	.align	0
.L58:
	.word	sz53_table
	.align	0
op_0x0e__FP16_z80_cpu_context:
	@ args = 0, pretend = 0, frame = 0
	@ frame_needed = 0, current_function_anonymous_args = 0
	stmfd	sp!, {r4, lr}
	mov	r4, r0
	ldrb	r3, [r4, #88]	@ zero_extendqisi2
	cmp	r3, #0
	beq	.L61
	ldr	r1, [r4, #136]
	ldr	ip, [r4, #132]
	mov	lr, pc
	bx	ip
	b	.L62
.L61:
	ldrh	r1, [r4, #52]	@ movhi
	add	r3, r1, #1
	strh	r3, [r4, #52]	@ movhi   ;; CYGNUS LOCAL nickc
	mov	r1, r1, asl #16
	mov	r0, r4
	mov	r1, r1, lsr #16
	mov	r2, #0
	ldr	r3, [r4, #120]
	ldr	ip, [r4, #116]
	mov	lr, pc
	bx	ip
.L62:
	strb	r0, [r4, #148]
	strb	r0, [r4, #4]
	ldmfd	sp!, {r4, lr}
	bx	lr
	.align	0
op_0x0f__FP16_z80_cpu_context:
	@ args = 0, pretend = 0, frame = 0
	@ frame_needed = 0, current_function_anonymous_args = 0
	ldrb	r2, [r0, #0]
	and	r2, r2, #196
	ldrb	r3, [r0, #1]
	and	r1, r3, #1
	orr	r2, r2, r1
	strb	r2, [r0, #0]
	and	r1, r3, #255
	mov	r3, r3, asl #7
	orr	r3, r3, r1, lsr #1
	strb	r3, [r0, #1]
	and	r3, r3, #40
	orr	r2, r2, r3
	strb	r2, [r0, #0]
	bx	lr
	.align	0
op_0x10__FP16_z80_cpu_context:
	@ args = 0, pretend = 0, frame = 0
	@ frame_needed = 0, current_function_anonymous_args = 0
	stmfd	sp!, {r4, lr}
	mov	r4, r0
	ldrb	r3, [r4, #88]	@ zero_extendqisi2
	cmp	r3, #0
	beq	.L67
	ldr	r1, [r4, #136]
	ldr	ip, [r4, #132]
	mov	lr, pc
	bx	ip
	b	.L68
.L67:
	ldrh	r1, [r4, #52]	@ movhi
	add	r3, r1, #1
	strh	r3, [r4, #52]	@ movhi   ;; CYGNUS LOCAL nickc
	mov	r1, r1, asl #16
	mov	r0, r4
	mov	r1, r1, lsr #16
	mov	r2, #0
	ldr	r3, [r4, #120]
	ldr	ip, [r4, #116]
	mov	lr, pc
	bx	ip
.L68:
	strb	r0, [r4, #148]
	tst	r0, #128
	orrne	r3, r0, #128
.L69:
	ldreqb	r3, [r4, #148]
.L70:
	strb	r3, [r4, #149]
	ldrb	r3, [r4, #5]
	sub	r3, r3, #1
	strb	r3, [r4, #5]
	ldrb	r3, [r4, #5]	@ zero_extendqisi2
	cmp	r3, #0
	beq	.L66
	ldrsb	r3, [r4, #149]
	ldrh	r2, [r4, #52]	@ movhi
	add	r3, r3, r2
	strh	r3, [r4, #52]	@ movhi   ;; CYGNUS LOCAL nickc
	strh	r3, [r4, #60]	@ movhi   ;; CYGNUS LOCAL nickc
.L66:
	ldmfd	sp!, {r4, lr}
	bx	lr
	.align	0
op_0x11__FP16_z80_cpu_context:
	@ args = 0, pretend = 0, frame = 0
	@ frame_needed = 0, current_function_anonymous_args = 0
	stmfd	sp!, {r4, r5, r6, lr}
	mov	r4, r0
	ldrb	r3, [r4, #88]	@ zero_extendqisi2
	cmp	r3, #0
	beq	.L75
	ldr	r1, [r4, #136]
	ldr	ip, [r4, #132]
	mov	lr, pc
	bx	ip
	b	.L76
.L75:
	ldrh	r1, [r4, #52]	@ movhi
	add	r3, r1, #1
	strh	r3, [r4, #52]	@ movhi   ;; CYGNUS LOCAL nickc
	mov	r1, r1, asl #16
	mov	r0, r4
	mov	r1, r1, lsr #16
	mov	r2, #0
	ldr	r3, [r4, #120]
	ldr	ip, [r4, #116]
	mov	lr, pc
	bx	ip
.L76:
	strb	r0, [r4, #140]
	ldrb	r3, [r4, #88]	@ zero_extendqisi2
	cmp	r3, #0
	beq	.L77
	mov	r0, r4
	ldr	r1, [r4, #136]
	ldr	ip, [r4, #132]
	mov	lr, pc
	bx	ip
	b	.L78
.L77:
	ldrh	r1, [r4, #52]	@ movhi
	add	r3, r1, #1
	strh	r3, [r4, #52]	@ movhi   ;; CYGNUS LOCAL nickc
	mov	r1, r1, asl #16
	mov	r0, r4
	mov	r1, r1, lsr #16
	mov	r2, #0
	ldr	r3, [r4, #120]
	ldr	ip, [r4, #116]
	mov	lr, pc
	bx	ip
.L78:
	strb	r0, [r4, #141]
	ldrb	r5, [r4, #140]	@ zero_extendqisi2
	ldrb	r6, [r4, #141]	@ zero_extendqisi2
	orr	r6, r5, r6, asl #8
	strh	r6, [r4, #8]	@ movhi   ;; CYGNUS LOCAL nickc
	ldmfd	sp!, {r4, r5, r6, lr}
	bx	lr
	.align	0
op_0x12__FP16_z80_cpu_context:
	@ args = 0, pretend = 0, frame = 0
	@ frame_needed = 0, current_function_anonymous_args = 0
	stmfd	sp!, {lr}
	mov	ip, r0
	ldrb	r3, [ip, #1]
	strb	r3, [ip, #148]
	strb	r3, [ip, #61]
	ldrb	r3, [ip, #8]
	add	r3, r3, #1
	strb	r3, [ip, #60]
	ldrb	r3, [ip, #8]	@ zero_extendqisi2
	ldrb	r1, [ip, #9]	@ zero_extendqisi2
	orr	r1, r3, r1, asl #8
	ldrb	r2, [ip, #148]	@ zero_extendqisi2
	ldr	r3, [ip, #128]
	ldr	ip, [ip, #124]
	mov	lr, pc
	bx	ip
	ldmfd	sp!, {ip}
	bx	ip
	.align	0
op_0x13__FP16_z80_cpu_context:
	@ args = 0, pretend = 0, frame = 0
	@ frame_needed = 0, current_function_anonymous_args = 0
	ldrh	r3, [r0, #8]	@ movhi
	add	r3, r3, #1
	strh	r3, [r0, #8]	@ movhi   ;; CYGNUS LOCAL nickc
	bx	lr
	.align	0
op_0x14__FP16_z80_cpu_context:
	@ args = 0, pretend = 0, frame = 0
	@ frame_needed = 0, current_function_anonymous_args = 0
	ldrb	r2, [r0, #9]
	add	r2, r2, #1
	strb	r2, [r0, #9]
	ldrb	r3, [r0, #0]
	and	r3, r3, #1
	ldrb	r1, [r0, #9]	@ zero_extendqisi2
	cmp	r1, #128
	movne	ip, #0
	moveq	ip, #1
	orr	ip, r3, ip, asl #2
	ldr	r3, .L88
	ldrb	r1, [r3, r1]	@ zero_extendqisi2
	tst	r2, #15
	bne	.L85
	orr	r3, r1, #16
	orr	r1, ip, r3
	b	.L86
.L89:
	.align	0
.L88:
	.word	sz53_table
.L85:
	orr	r1, ip, r1
.L86:
	strb	r1, [r0, #0]
	bx	lr
	.align	0
op_0x15__FP16_z80_cpu_context:
	@ args = 0, pretend = 0, frame = 0
	@ frame_needed = 0, current_function_anonymous_args = 0
	ldrb	r3, [r0, #0]
	and	r3, r3, #1
	ldrb	ip, [r0, #9]
	tst	ip, #15
	orreq	r3, r3, #18
.L91:
	orrne	r3, r3, #2
.L92:
	strb	r3, [r0, #0]
	ldrb	r3, [r0, #9]
	sub	r3, r3, #1
	strb	r3, [r0, #9]
	ldr	r3, .L96
	ldrb	r2, [r0, #9]	@ zero_extendqisi2
	ldrb	r1, [r3, r2]	@ zero_extendqisi2
	ldrb	r3, [r0, #0]	@ zero_extendqisi2
	cmp	r2, #127
	orreq	r3, r3, #4
.L93:
	orr	r3, r3, r1
	strb	r3, [r0, #0]
	bx	lr
.L97:
	.align	0
.L96:
	.word	sz53_table
	.align	0
op_0x16__FP16_z80_cpu_context:
	@ args = 0, pretend = 0, frame = 0
	@ frame_needed = 0, current_function_anonymous_args = 0
	stmfd	sp!, {r4, lr}
	mov	r4, r0
	ldrb	r3, [r4, #88]	@ zero_extendqisi2
	cmp	r3, #0
	beq	.L99
	ldr	r1, [r4, #136]
	ldr	ip, [r4, #132]
	mov	lr, pc
	bx	ip
	b	.L100
.L99:
	ldrh	r1, [r4, #52]	@ movhi
	add	r3, r1, #1
	strh	r3, [r4, #52]	@ movhi   ;; CYGNUS LOCAL nickc
	mov	r1, r1, asl #16
	mov	r0, r4
	mov	r1, r1, lsr #16
	mov	r2, #0
	ldr	r3, [r4, #120]
	ldr	ip, [r4, #116]
	mov	lr, pc
	bx	ip
.L100:
	strb	r0, [r4, #148]
	strb	r0, [r4, #9]
	ldmfd	sp!, {r4, lr}
	bx	lr
	.align	0
op_0x17__FP16_z80_cpu_context:
	@ args = 0, pretend = 0, frame = 0
	@ frame_needed = 0, current_function_anonymous_args = 0
	ldrb	ip, [r0, #1]	@ zero_extendqisi2
	ldrb	r1, [r0, #1]
	ldrb	r3, [r0, #0]
	and	r2, r3, #1
	orr	r2, r2, r1, asl #1
	strb	r2, [r0, #1]
	and	r3, r3, #196
	and	r2, r2, #40
	orr	r3, r3, r2
	orr	r3, r3, ip, lsr #7
	strb	r3, [r0, #0]
	bx	lr
	.align	0
op_0x18__FP16_z80_cpu_context:
	@ args = 0, pretend = 0, frame = 0
	@ frame_needed = 0, current_function_anonymous_args = 0
	stmfd	sp!, {r4, lr}
	mov	r4, r0
	ldrb	r3, [r4, #88]	@ zero_extendqisi2
	cmp	r3, #0
	beq	.L105
	ldr	r1, [r4, #136]
	ldr	ip, [r4, #132]
	mov	lr, pc
	bx	ip
	b	.L106
.L105:
	ldrh	r1, [r4, #52]	@ movhi
	add	r3, r1, #1
	strh	r3, [r4, #52]	@ movhi   ;; CYGNUS LOCAL nickc
	mov	r1, r1, asl #16
	mov	r0, r4
	mov	r1, r1, lsr #16
	mov	r2, #0
	ldr	r3, [r4, #120]
	ldr	ip, [r4, #116]
	mov	lr, pc
	bx	ip
.L106:
	strb	r0, [r4, #148]
	tst	r0, #128
	orrne	r3, r0, #128
.L107:
	ldreqb	r3, [r4, #148]
.L108:
	strb	r3, [r4, #149]
	ldrsb	r3, [r4, #149]
	ldrh	r2, [r4, #52]	@ movhi
	add	r3, r3, r2
	strh	r3, [r4, #52]	@ movhi   ;; CYGNUS LOCAL nickc
	strh	r3, [r4, #60]	@ movhi   ;; CYGNUS LOCAL nickc
	ldmfd	sp!, {r4, lr}
	bx	lr
	.align	0
op_0x19__FP16_z80_cpu_context:
	@ args = 0, pretend = 0, frame = 0
	@ frame_needed = 0, current_function_anonymous_args = 0
	stmfd	sp!, {lr}
	mov	ip, r0
	ldrb	r1, [ip, #12]	@ zero_extendqisi2
	ldrb	r3, [ip, #13]	@ zero_extendqisi2
	orr	r1, r1, r3, asl #8
	ldrb	r3, [ip, #8]	@ zero_extendqisi2
	ldrb	r2, [ip, #9]	@ zero_extendqisi2
	orr	r3, r3, r2, asl #8
	add	r1, r1, r3
	ldrh	r0, [ip, #12]	@ movhi
	and	r3, r0, #2048
	ldrh	r2, [ip, #8]	@ movhi
	and	r2, r2, #2048
	cmp	r2, #0
	movne	r2, #2
	moveq	r2, #0
	cmp	r3, #0
	orrne	r2, r2, #1
	and	r3, r1, #2048
	mov	r3, r3, lsr #9
	orr	r2, r2, r3
	and	r2, r2, #255
	add	r0, r0, #1
	strh	r0, [ip, #60]	@ movhi   ;; CYGNUS LOCAL nickc
	strh	r1, [ip, #12]	@ movhi   ;; CYGNUS LOCAL nickc
	ldrb	r3, [ip, #0]
	and	lr, r3, #196
	mov	r0, r1, lsr #8
	and	r0, r0, #40
	ldr	r3, .L115
	ldrb	r2, [r3, r2]	@ zero_extendqisi2
	tst	r1, #65536
	beq	.L111
	orr	r3, r0, #1
	orr	r1, lr, r3
	b	.L114
.L116:
	.align	0
.L115:
	.word	halfcarry_add_table
.L111:
	orr	r1, lr, r0
.L114:
	orr	r1, r1, r2
	strb	r1, [ip, #0]
	ldmfd	sp!, {ip}
	bx	ip
	.align	0
op_0x1a__FP16_z80_cpu_context:
	@ args = 0, pretend = 0, frame = 0
	@ frame_needed = 0, current_function_anonymous_args = 0
	stmfd	sp!, {r4, lr}
	mov	r4, r0
	ldrb	r3, [r4, #8]	@ zero_extendqisi2
	ldrb	r1, [r4, #9]	@ zero_extendqisi2
	orr	r1, r3, r1, asl #8
	mov	r2, #0
	ldr	r3, [r4, #120]
	ldr	ip, [r4, #116]
	mov	lr, pc
	bx	ip
	strb	r0, [r4, #148]
	strb	r0, [r4, #1]
	ldrh	r3, [r4, #8]	@ movhi
	add	r3, r3, #1
	strh	r3, [r4, #60]	@ movhi   ;; CYGNUS LOCAL nickc
	ldmfd	sp!, {r4, lr}
	bx	lr
	.align	0
op_0x1b__FP16_z80_cpu_context:
	@ args = 0, pretend = 0, frame = 0
	@ frame_needed = 0, current_function_anonymous_args = 0
	ldrh	r3, [r0, #8]	@ movhi
	sub	r3, r3, #1
	strh	r3, [r0, #8]	@ movhi   ;; CYGNUS LOCAL nickc
	bx	lr
	.align	0
op_0x1c__FP16_z80_cpu_context:
	@ args = 0, pretend = 0, frame = 0
	@ frame_needed = 0, current_function_anonymous_args = 0
	ldrb	r2, [r0, #8]
	add	r2, r2, #1
	strb	r2, [r0, #8]
	ldrb	r3, [r0, #0]
	and	r3, r3, #1
	ldrb	r1, [r0, #8]	@ zero_extendqisi2
	cmp	r1, #128
	movne	ip, #0
	moveq	ip, #1
	orr	ip, r3, ip, asl #2
	ldr	r3, .L125
	ldrb	r1, [r3, r1]	@ zero_extendqisi2
	tst	r2, #15
	bne	.L122
	orr	r3, r1, #16
	orr	r1, ip, r3
	b	.L123
.L126:
	.align	0
.L125:
	.word	sz53_table
.L122:
	orr	r1, ip, r1
.L123:
	strb	r1, [r0, #0]
	bx	lr
	.align	0
op_0x1d__FP16_z80_cpu_context:
	@ args = 0, pretend = 0, frame = 0
	@ frame_needed = 0, current_function_anonymous_args = 0
	ldrb	r3, [r0, #0]
	and	r3, r3, #1
	ldrb	ip, [r0, #8]
	tst	ip, #15
	orreq	r3, r3, #18
.L128:
	orrne	r3, r3, #2
.L129:
	strb	r3, [r0, #0]
	ldrb	r3, [r0, #8]
	sub	r3, r3, #1
	strb	r3, [r0, #8]
	ldr	r3, .L133
	ldrb	r2, [r0, #8]	@ zero_extendqisi2
	ldrb	r1, [r3, r2]	@ zero_extendqisi2
	ldrb	r3, [r0, #0]	@ zero_extendqisi2
	cmp	r2, #127
	orreq	r3, r3, #4
.L130:
	orr	r3, r3, r1
	strb	r3, [r0, #0]
	bx	lr
.L134:
	.align	0
.L133:
	.word	sz53_table
	.align	0
op_0x1e__FP16_z80_cpu_context:
	@ args = 0, pretend = 0, frame = 0
	@ frame_needed = 0, current_function_anonymous_args = 0
	stmfd	sp!, {r4, lr}
	mov	r4, r0
	ldrb	r3, [r4, #88]	@ zero_extendqisi2
	cmp	r3, #0
	beq	.L136
	ldr	r1, [r4, #136]
	ldr	ip, [r4, #132]
	mov	lr, pc
	bx	ip
	b	.L137
.L136:
	ldrh	r1, [r4, #52]	@ movhi
	add	r3, r1, #1
	strh	r3, [r4, #52]	@ movhi   ;; CYGNUS LOCAL nickc
	mov	r1, r1, asl #16
	mov	r0, r4
	mov	r1, r1, lsr #16
	mov	r2, #0
	ldr	r3, [r4, #120]
	ldr	ip, [r4, #116]
	mov	lr, pc
	bx	ip
.L137:
	strb	r0, [r4, #148]
	strb	r0, [r4, #8]
	ldmfd	sp!, {r4, lr}
	bx	lr
	.align	0
op_0x1f__FP16_z80_cpu_context:
	@ args = 0, pretend = 0, frame = 0
	@ frame_needed = 0, current_function_anonymous_args = 0
	ldrb	r1, [r0, #1]	@ zero_extendqisi2
	ldrb	r3, [r0, #0]
	mov	r2, r3, asl #7
	orr	r2, r2, r1, lsr #1
	strb	r2, [r0, #1]
	and	r3, r3, #196
	and	r2, r2, #40
	orr	r3, r3, r2
	and	r1, r1, #1
	orr	r3, r3, r1
	strb	r3, [r0, #0]
	bx	lr
	.align	0
op_0x20__FP16_z80_cpu_context:
	@ args = 0, pretend = 0, frame = 0
	@ frame_needed = 0, current_function_anonymous_args = 0
	stmfd	sp!, {r4, lr}
	mov	r4, r0
	ldrb	r3, [r4, #88]	@ zero_extendqisi2
	cmp	r3, #0
	beq	.L142
	ldr	r1, [r4, #136]
	ldr	ip, [r4, #132]
	mov	lr, pc
	bx	ip
	b	.L143
.L142:
	ldrh	r1, [r4, #52]	@ movhi
	add	r3, r1, #1
	strh	r3, [r4, #52]	@ movhi   ;; CYGNUS LOCAL nickc
	mov	r1, r1, asl #16
	mov	r0, r4
	mov	r1, r1, lsr #16
	mov	r2, #0
	ldr	r3, [r4, #120]
	ldr	ip, [r4, #116]
	mov	lr, pc
	bx	ip
.L143:
	strb	r0, [r4, #148]
	tst	r0, #128
	orrne	r3, r0, #128
.L144:
	ldreqb	r3, [r4, #148]
.L145:
	strb	r3, [r4, #149]
	ldrb	ip, [r4, #0]
	tst	ip, #64
	bne	.L141
	ldrsb	r3, [r4, #149]
	ldrh	r2, [r4, #52]	@ movhi
	add	r3, r3, r2
	strh	r3, [r4, #52]	@ movhi   ;; CYGNUS LOCAL nickc
	strh	r3, [r4, #60]	@ movhi   ;; CYGNUS LOCAL nickc
.L141:
	ldmfd	sp!, {r4, lr}
	bx	lr
	.align	0
op_0x21__FP16_z80_cpu_context:
	@ args = 0, pretend = 0, frame = 0
	@ frame_needed = 0, current_function_anonymous_args = 0
	stmfd	sp!, {r4, r5, r6, lr}
	mov	r4, r0
	ldrb	r3, [r4, #88]	@ zero_extendqisi2
	cmp	r3, #0
	beq	.L150
	ldr	r1, [r4, #136]
	ldr	ip, [r4, #132]
	mov	lr, pc
	bx	ip
	b	.L151
.L150:
	ldrh	r1, [r4, #52]	@ movhi
	add	r3, r1, #1
	strh	r3, [r4, #52]	@ movhi   ;; CYGNUS LOCAL nickc
	mov	r1, r1, asl #16
	mov	r0, r4
	mov	r1, r1, lsr #16
	mov	r2, #0
	ldr	r3, [r4, #120]
	ldr	ip, [r4, #116]
	mov	lr, pc
	bx	ip
.L151:
	strb	r0, [r4, #140]
	ldrb	r3, [r4, #88]	@ zero_extendqisi2
	cmp	r3, #0
	beq	.L152
	mov	r0, r4
	ldr	r1, [r4, #136]
	ldr	ip, [r4, #132]
	mov	lr, pc
	bx	ip
	b	.L153
.L152:
	ldrh	r1, [r4, #52]	@ movhi
	add	r3, r1, #1
	strh	r3, [r4, #52]	@ movhi   ;; CYGNUS LOCAL nickc
	mov	r1, r1, asl #16
	mov	r0, r4
	mov	r1, r1, lsr #16
	mov	r2, #0
	ldr	r3, [r4, #120]
	ldr	ip, [r4, #116]
	mov	lr, pc
	bx	ip
.L153:
	strb	r0, [r4, #141]
	ldrb	r5, [r4, #140]	@ zero_extendqisi2
	ldrb	r6, [r4, #141]	@ zero_extendqisi2
	orr	r6, r5, r6, asl #8
	strh	r6, [r4, #12]	@ movhi   ;; CYGNUS LOCAL nickc
	ldmfd	sp!, {r4, r5, r6, lr}
	bx	lr
	.align	0
op_0x22__FP16_z80_cpu_context:
	@ args = 0, pretend = 0, frame = 0
	@ frame_needed = 0, current_function_anonymous_args = 0
	stmfd	sp!, {r4, r5, r6, lr}
	mov	r4, r0
	ldrb	r3, [r4, #88]	@ zero_extendqisi2
	cmp	r3, #0
	beq	.L156
	ldr	r1, [r4, #136]
	ldr	ip, [r4, #132]
	mov	lr, pc
	bx	ip
	b	.L157
.L156:
	ldrh	r1, [r4, #52]	@ movhi
	add	r3, r1, #1
	strh	r3, [r4, #52]	@ movhi   ;; CYGNUS LOCAL nickc
	mov	r1, r1, asl #16
	mov	r0, r4
	mov	r1, r1, lsr #16
	mov	r2, #0
	ldr	r3, [r4, #120]
	ldr	ip, [r4, #116]
	mov	lr, pc
	bx	ip
.L157:
	strb	r0, [r4, #144]
	ldrb	r3, [r4, #88]	@ zero_extendqisi2
	cmp	r3, #0
	beq	.L158
	mov	r0, r4
	ldr	r1, [r4, #136]
	ldr	ip, [r4, #132]
	mov	lr, pc
	bx	ip
	b	.L159
.L158:
	ldrh	r1, [r4, #52]	@ movhi
	add	r3, r1, #1
	strh	r3, [r4, #52]	@ movhi   ;; CYGNUS LOCAL nickc
	mov	r1, r1, asl #16
	mov	r0, r4
	mov	r1, r1, lsr #16
	mov	r2, #0
	ldr	r3, [r4, #120]
	ldr	ip, [r4, #116]
	mov	lr, pc
	bx	ip
.L159:
	strb	r0, [r4, #145]
	ldrb	r5, [r4, #12]	@ zero_extendqisi2
	ldrb	r6, [r4, #13]	@ zero_extendqisi2
	orr	r6, r5, r6, asl #8
	strh	r6, [r4, #140]	@ movhi   ;; CYGNUS LOCAL nickc
	ldrh	r3, [r4, #144]	@ movhi
	add	r3, r3, #1
	strh	r3, [r4, #60]	@ movhi   ;; CYGNUS LOCAL nickc
	ldrb	r3, [r4, #144]	@ zero_extendqisi2
	ldrb	r1, [r4, #145]	@ zero_extendqisi2
	mov	r0, r4
	orr	r1, r3, r1, asl #8
	ldrb	r2, [r4, #140]	@ zero_extendqisi2
	ldr	r3, [r4, #128]
	ldr	ip, [r4, #124]
	mov	lr, pc
	bx	ip
	ldrh	r1, [r4, #144]	@ movhi
	add	r1, r1, #1
	mov	r1, r1, asl #16
	mov	r0, r4
	mov	r1, r1, lsr #16
	ldrb	r2, [r4, #141]	@ zero_extendqisi2
	ldr	r3, [r4, #128]
	ldr	ip, [r4, #124]
	mov	lr, pc
	bx	ip
	ldmfd	sp!, {r4, r5, r6, lr}
	bx	lr
	.align	0
op_0x23__FP16_z80_cpu_context:
	@ args = 0, pretend = 0, frame = 0
	@ frame_needed = 0, current_function_anonymous_args = 0
	ldrh	r3, [r0, #12]	@ movhi
	add	r3, r3, #1
	strh	r3, [r0, #12]	@ movhi   ;; CYGNUS LOCAL nickc
	bx	lr
	.align	0
op_0x24__FP16_z80_cpu_context:
	@ args = 0, pretend = 0, frame = 0
	@ frame_needed = 0, current_function_anonymous_args = 0
	ldrb	r2, [r0, #13]
	add	r2, r2, #1
	strb	r2, [r0, #13]
	ldrb	r3, [r0, #0]
	and	r3, r3, #1
	ldrb	r1, [r0, #13]	@ zero_extendqisi2
	cmp	r1, #128
	movne	ip, #0
	moveq	ip, #1
	orr	ip, r3, ip, asl #2
	ldr	r3, .L167
	ldrb	r1, [r3, r1]	@ zero_extendqisi2
	tst	r2, #15
	bne	.L164
	orr	r3, r1, #16
	orr	r1, ip, r3
	b	.L165
.L168:
	.align	0
.L167:
	.word	sz53_table
.L164:
	orr	r1, ip, r1
.L165:
	strb	r1, [r0, #0]
	bx	lr
	.align	0
op_0x25__FP16_z80_cpu_context:
	@ args = 0, pretend = 0, frame = 0
	@ frame_needed = 0, current_function_anonymous_args = 0
	ldrb	r3, [r0, #0]
	and	r3, r3, #1
	ldrb	ip, [r0, #13]
	tst	ip, #15
	orreq	r3, r3, #18
.L170:
	orrne	r3, r3, #2
.L171:
	strb	r3, [r0, #0]
	ldrb	r3, [r0, #13]
	sub	r3, r3, #1
	strb	r3, [r0, #13]
	ldr	r3, .L175
	ldrb	r2, [r0, #13]	@ zero_extendqisi2
	ldrb	r1, [r3, r2]	@ zero_extendqisi2
	ldrb	r3, [r0, #0]	@ zero_extendqisi2
	cmp	r2, #127
	orreq	r3, r3, #4
.L172:
	orr	r3, r3, r1
	strb	r3, [r0, #0]
	bx	lr
.L176:
	.align	0
.L175:
	.word	sz53_table
	.align	0
op_0x26__FP16_z80_cpu_context:
	@ args = 0, pretend = 0, frame = 0
	@ frame_needed = 0, current_function_anonymous_args = 0
	stmfd	sp!, {r4, lr}
	mov	r4, r0
	ldrb	r3, [r4, #88]	@ zero_extendqisi2
	cmp	r3, #0
	beq	.L178
	ldr	r1, [r4, #136]
	ldr	ip, [r4, #132]
	mov	lr, pc
	bx	ip
	b	.L179
.L178:
	ldrh	r1, [r4, #52]	@ movhi
	add	r3, r1, #1
	strh	r3, [r4, #52]	@ movhi   ;; CYGNUS LOCAL nickc
	mov	r1, r1, asl #16
	mov	r0, r4
	mov	r1, r1, lsr #16
	mov	r2, #0
	ldr	r3, [r4, #120]
	ldr	ip, [r4, #116]
	mov	lr, pc
	bx	ip
.L179:
	strb	r0, [r4, #148]
	strb	r0, [r4, #13]
	ldmfd	sp!, {r4, lr}
	bx	lr
	.align	0
op_0x27__FP16_z80_cpu_context:
	@ args = 0, pretend = 0, frame = 0
	@ frame_needed = 0, current_function_anonymous_args = 0
	ldrb	r1, [r0, #1]	@ zero_extendqisi2
	ldrb	r2, [r0, #0]
	and	r2, r2, #3
	ldrb	r3, [r0, #0]	@ zero_extendqisi2
	mov	r3, r3, lsr #2
	and	r3, r3, #4
	add	r2, r2, r3
	orr	r1, r1, r2, asl #8
	mov	r1, r1, asl #1
	ldr	r3, .L183
	add	r2, r1, r3
	ldrb	r3, [r1, r3]
	strb	r3, [r0, #0]
	ldrb	r3, [r2, #1]
	strb	r3, [r0, #1]
	bx	lr
.L184:
	.align	0
.L183:
	.word	daatab
	.align	0
op_0x28__FP16_z80_cpu_context:
	@ args = 0, pretend = 0, frame = 0
	@ frame_needed = 0, current_function_anonymous_args = 0
	stmfd	sp!, {r4, lr}
	mov	r4, r0
	ldrb	r3, [r4, #88]	@ zero_extendqisi2
	cmp	r3, #0
	beq	.L186
	ldr	r1, [r4, #136]
	ldr	ip, [r4, #132]
	mov	lr, pc
	bx	ip
	b	.L187
.L186:
	ldrh	r1, [r4, #52]	@ movhi
	add	r3, r1, #1
	strh	r3, [r4, #52]	@ movhi   ;; CYGNUS LOCAL nickc
	mov	r1, r1, asl #16
	mov	r0, r4
	mov	r1, r1, lsr #16
	mov	r2, #0
	ldr	r3, [r4, #120]
	ldr	ip, [r4, #116]
	mov	lr, pc
	bx	ip
.L187:
	strb	r0, [r4, #148]
	tst	r0, #128
	orrne	r3, r0, #128
.L188:
	ldreqb	r3, [r4, #148]
.L189:
	strb	r3, [r4, #149]
	ldrb	ip, [r4, #0]
	tst	ip, #64
	beq	.L185
	ldrsb	r3, [r4, #149]
	ldrh	r2, [r4, #52]	@ movhi
	add	r3, r3, r2
	strh	r3, [r4, #52]	@ movhi   ;; CYGNUS LOCAL nickc
	strh	r3, [r4, #60]	@ movhi   ;; CYGNUS LOCAL nickc
.L185:
	ldmfd	sp!, {r4, lr}
	bx	lr
	.align	0
op_0x29__FP16_z80_cpu_context:
	@ args = 0, pretend = 0, frame = 0
	@ frame_needed = 0, current_function_anonymous_args = 0
	stmfd	sp!, {lr}
	mov	ip, r0
	ldrb	r1, [ip, #12]	@ zero_extendqisi2
	ldrb	r3, [ip, #13]	@ zero_extendqisi2
	orr	r1, r1, r3, asl #8
	mov	r1, r1, asl #1
	ldrh	r0, [ip, #12]	@ movhi
	and	r2, r0, #2048
	cmp	r2, #0
	movne	r2, #3
	moveq	r2, #0
	and	r3, r1, #2048
	mov	r3, r3, lsr #9
	orr	r2, r2, r3
	and	r2, r2, #255
	add	r0, r0, #1
	strh	r0, [ip, #60]	@ movhi   ;; CYGNUS LOCAL nickc
	strh	r1, [ip, #12]	@ movhi   ;; CYGNUS LOCAL nickc
	ldrb	r3, [ip, #0]
	and	lr, r3, #196
	mov	r0, r1, lsr #8
	and	r0, r0, #40
	ldr	r3, .L198
	ldrb	r2, [r3, r2]	@ zero_extendqisi2
	tst	r1, #65536
	beq	.L194
	orr	r3, r0, #1
	orr	r1, lr, r3
	b	.L197
.L199:
	.align	0
.L198:
	.word	halfcarry_add_table
.L194:
	orr	r1, lr, r0
.L197:
	orr	r1, r1, r2
	strb	r1, [ip, #0]
	ldmfd	sp!, {ip}
	bx	ip
	.align	0
op_0x2a__FP16_z80_cpu_context:
	@ args = 0, pretend = 0, frame = 0
	@ frame_needed = 0, current_function_anonymous_args = 0
	stmfd	sp!, {r4, r5, r6, lr}
	mov	r4, r0
	ldrb	r3, [r4, #88]	@ zero_extendqisi2
	cmp	r3, #0
	beq	.L201
	ldr	r1, [r4, #136]
	ldr	ip, [r4, #132]
	mov	lr, pc
	bx	ip
	b	.L202
.L201:
	ldrh	r1, [r4, #52]	@ movhi
	add	r3, r1, #1
	strh	r3, [r4, #52]	@ movhi   ;; CYGNUS LOCAL nickc
	mov	r1, r1, asl #16
	mov	r0, r4
	mov	r1, r1, lsr #16
	mov	r2, #0
	ldr	r3, [r4, #120]
	ldr	ip, [r4, #116]
	mov	lr, pc
	bx	ip
.L202:
	strb	r0, [r4, #144]
	ldrb	r3, [r4, #88]	@ zero_extendqisi2
	cmp	r3, #0
	beq	.L203
	mov	r0, r4
	ldr	r1, [r4, #136]
	ldr	ip, [r4, #132]
	mov	lr, pc
	bx	ip
	b	.L204
.L203:
	ldrh	r1, [r4, #52]	@ movhi
	add	r3, r1, #1
	strh	r3, [r4, #52]	@ movhi   ;; CYGNUS LOCAL nickc
	mov	r1, r1, asl #16
	mov	r0, r4
	mov	r1, r1, lsr #16
	mov	r2, #0
	ldr	r3, [r4, #120]
	ldr	ip, [r4, #116]
	mov	lr, pc
	bx	ip
.L204:
	strb	r0, [r4, #145]
	ldrb	r3, [r4, #144]	@ zero_extendqisi2
	ldrb	r1, [r4, #145]	@ zero_extendqisi2
	mov	r0, r4
	orr	r1, r3, r1, asl #8
	mov	r2, #0
	ldr	r3, [r4, #120]
	ldr	ip, [r4, #116]
	mov	lr, pc
	bx	ip
	strb	r0, [r4, #140]
	ldrh	r1, [r4, #144]	@ movhi
	add	r1, r1, #1
	mov	r1, r1, asl #16
	mov	r0, r4
	mov	r1, r1, lsr #16
	mov	r2, #0
	ldr	r3, [r4, #120]
	ldr	ip, [r4, #116]
	mov	lr, pc
	bx	ip
	strb	r0, [r4, #141]
	ldrb	r5, [r4, #140]	@ zero_extendqisi2
	ldrb	r6, [r4, #141]	@ zero_extendqisi2
	orr	r6, r5, r6, asl #8
	strh	r6, [r4, #12]	@ movhi   ;; CYGNUS LOCAL nickc
	ldrh	r3, [r4, #144]	@ movhi
	add	r3, r3, #1
	strh	r3, [r4, #60]	@ movhi   ;; CYGNUS LOCAL nickc
	ldmfd	sp!, {r4, r5, r6, lr}
	bx	lr
	.align	0
op_0x2b__FP16_z80_cpu_context:
	@ args = 0, pretend = 0, frame = 0
	@ frame_needed = 0, current_function_anonymous_args = 0
	ldrh	r3, [r0, #12]	@ movhi
	sub	r3, r3, #1
	strh	r3, [r0, #12]	@ movhi   ;; CYGNUS LOCAL nickc
	bx	lr
	.align	0
op_0x2c__FP16_z80_cpu_context:
	@ args = 0, pretend = 0, frame = 0
	@ frame_needed = 0, current_function_anonymous_args = 0
	ldrb	r2, [r0, #12]
	add	r2, r2, #1
	strb	r2, [r0, #12]
	ldrb	r3, [r0, #0]
	and	r3, r3, #1
	ldrb	r1, [r0, #12]	@ zero_extendqisi2
	cmp	r1, #128
	movne	ip, #0
	moveq	ip, #1
	orr	ip, r3, ip, asl #2
	ldr	r3, .L212
	ldrb	r1, [r3, r1]	@ zero_extendqisi2
	tst	r2, #15
	bne	.L209
	orr	r3, r1, #16
	orr	r1, ip, r3
	b	.L210
.L213:
	.align	0
.L212:
	.word	sz53_table
.L209:
	orr	r1, ip, r1
.L210:
	strb	r1, [r0, #0]
	bx	lr
	.align	0
op_0x2d__FP16_z80_cpu_context:
	@ args = 0, pretend = 0, frame = 0
	@ frame_needed = 0, current_function_anonymous_args = 0
	ldrb	r3, [r0, #0]
	and	r3, r3, #1
	ldrb	ip, [r0, #12]
	tst	ip, #15
	orreq	r3, r3, #18
.L215:
	orrne	r3, r3, #2
.L216:
	strb	r3, [r0, #0]
	ldrb	r3, [r0, #12]
	sub	r3, r3, #1
	strb	r3, [r0, #12]
	ldr	r3, .L220
	ldrb	r2, [r0, #12]	@ zero_extendqisi2
	ldrb	r1, [r3, r2]	@ zero_extendqisi2
	ldrb	r3, [r0, #0]	@ zero_extendqisi2
	cmp	r2, #127
	orreq	r3, r3, #4
.L217:
	orr	r3, r3, r1
	strb	r3, [r0, #0]
	bx	lr
.L221:
	.align	0
.L220:
	.word	sz53_table
	.align	0
op_0x2e__FP16_z80_cpu_context:
	@ args = 0, pretend = 0, frame = 0
	@ frame_needed = 0, current_function_anonymous_args = 0
	stmfd	sp!, {r4, lr}
	mov	r4, r0
	ldrb	r3, [r4, #88]	@ zero_extendqisi2
	cmp	r3, #0
	beq	.L223
	ldr	r1, [r4, #136]
	ldr	ip, [r4, #132]
	mov	lr, pc
	bx	ip
	b	.L224
.L223:
	ldrh	r1, [r4, #52]	@ movhi
	add	r3, r1, #1
	strh	r3, [r4, #52]	@ movhi   ;; CYGNUS LOCAL nickc
	mov	r1, r1, asl #16
	mov	r0, r4
	mov	r1, r1, lsr #16
	mov	r2, #0
	ldr	r3, [r4, #120]
	ldr	ip, [r4, #116]
	mov	lr, pc
	bx	ip
.L224:
	strb	r0, [r4, #148]
	strb	r0, [r4, #12]
	ldmfd	sp!, {r4, lr}
	bx	lr
	.align	0
op_0x2f__FP16_z80_cpu_context:
	@ args = 0, pretend = 0, frame = 0
	@ frame_needed = 0, current_function_anonymous_args = 0
	ldrb	r2, [r0, #1]
	mvn	r2, r2
	strb	r2, [r0, #1]
	ldrb	r3, [r0, #0]
	and	r3, r3, #197
	and	r2, r2, #40
	orr	r3, r3, r2
	orr	r3, r3, #18
	strb	r3, [r0, #0]
	bx	lr
	.align	0
op_0x30__FP16_z80_cpu_context:
	@ args = 0, pretend = 0, frame = 0
	@ frame_needed = 0, current_function_anonymous_args = 0
	stmfd	sp!, {r4, lr}
	mov	r4, r0
	ldrb	r3, [r4, #88]	@ zero_extendqisi2
	cmp	r3, #0
	beq	.L229
	ldr	r1, [r4, #136]
	ldr	ip, [r4, #132]
	mov	lr, pc
	bx	ip
	b	.L230
.L229:
	ldrh	r1, [r4, #52]	@ movhi
	add	r3, r1, #1
	strh	r3, [r4, #52]	@ movhi   ;; CYGNUS LOCAL nickc
	mov	r1, r1, asl #16
	mov	r0, r4
	mov	r1, r1, lsr #16
	mov	r2, #0
	ldr	r3, [r4, #120]
	ldr	ip, [r4, #116]
	mov	lr, pc
	bx	ip
.L230:
	strb	r0, [r4, #148]
	tst	r0, #128
	orrne	r3, r0, #128
.L231:
	ldreqb	r3, [r4, #148]
.L232:
	strb	r3, [r4, #149]
	ldrb	r3, [r4, #0]
	eor	r3, r3, #1
	tst	r3, #1
	beq	.L228
	ldrsb	r3, [r4, #149]
	ldrh	r2, [r4, #52]	@ movhi
	add	r3, r3, r2
	strh	r3, [r4, #52]	@ movhi   ;; CYGNUS LOCAL nickc
	strh	r3, [r4, #60]	@ movhi   ;; CYGNUS LOCAL nickc
.L228:
	ldmfd	sp!, {r4, lr}
	bx	lr
	.align	0
op_0x31__FP16_z80_cpu_context:
	@ args = 0, pretend = 0, frame = 0
	@ frame_needed = 0, current_function_anonymous_args = 0
	stmfd	sp!, {r4, r5, r6, lr}
	mov	r4, r0
	ldrb	r3, [r4, #88]	@ zero_extendqisi2
	cmp	r3, #0
	beq	.L237
	ldr	r1, [r4, #136]
	ldr	ip, [r4, #132]
	mov	lr, pc
	bx	ip
	b	.L238
.L237:
	ldrh	r1, [r4, #52]	@ movhi
	add	r3, r1, #1
	strh	r3, [r4, #52]	@ movhi   ;; CYGNUS LOCAL nickc
	mov	r1, r1, asl #16
	mov	r0, r4
	mov	r1, r1, lsr #16
	mov	r2, #0
	ldr	r3, [r4, #120]
	ldr	ip, [r4, #116]
	mov	lr, pc
	bx	ip
.L238:
	strb	r0, [r4, #140]
	ldrb	r3, [r4, #88]	@ zero_extendqisi2
	cmp	r3, #0
	beq	.L239
	mov	r0, r4
	ldr	r1, [r4, #136]
	ldr	ip, [r4, #132]
	mov	lr, pc
	bx	ip
	b	.L240
.L239:
	ldrh	r1, [r4, #52]	@ movhi
	add	r3, r1, #1
	strh	r3, [r4, #52]	@ movhi   ;; CYGNUS LOCAL nickc
	mov	r1, r1, asl #16
	mov	r0, r4
	mov	r1, r1, lsr #16
	mov	r2, #0
	ldr	r3, [r4, #120]
	ldr	ip, [r4, #116]
	mov	lr, pc
	bx	ip
.L240:
	strb	r0, [r4, #141]
	ldrb	r5, [r4, #140]	@ zero_extendqisi2
	ldrb	r6, [r4, #141]	@ zero_extendqisi2
	orr	r6, r5, r6, asl #8
	strh	r6, [r4, #48]	@ movhi   ;; CYGNUS LOCAL nickc
	ldmfd	sp!, {r4, r5, r6, lr}
	bx	lr
	.align	0
op_0x32__FP16_z80_cpu_context:
	@ args = 0, pretend = 0, frame = 0
	@ frame_needed = 0, current_function_anonymous_args = 0
	stmfd	sp!, {r4, lr}
	mov	r4, r0
	ldrb	r3, [r4, #88]	@ zero_extendqisi2
	cmp	r3, #0
	beq	.L243
	ldr	r1, [r4, #136]
	ldr	ip, [r4, #132]
	mov	lr, pc
	bx	ip
	b	.L244
.L243:
	ldrh	r1, [r4, #52]	@ movhi
	add	r3, r1, #1
	strh	r3, [r4, #52]	@ movhi   ;; CYGNUS LOCAL nickc
	mov	r1, r1, asl #16
	mov	r0, r4
	mov	r1, r1, lsr #16
	mov	r2, #0
	ldr	r3, [r4, #120]
	ldr	ip, [r4, #116]
	mov	lr, pc
	bx	ip
.L244:
	strb	r0, [r4, #144]
	ldrb	r3, [r4, #88]	@ zero_extendqisi2
	cmp	r3, #0
	beq	.L245
	mov	r0, r4
	ldr	r1, [r4, #136]
	ldr	ip, [r4, #132]
	mov	lr, pc
	bx	ip
	b	.L246
.L245:
	ldrh	r1, [r4, #52]	@ movhi
	add	r3, r1, #1
	strh	r3, [r4, #52]	@ movhi   ;; CYGNUS LOCAL nickc
	mov	r1, r1, asl #16
	mov	r0, r4
	mov	r1, r1, lsr #16
	mov	r2, #0
	ldr	r3, [r4, #120]
	ldr	ip, [r4, #116]
	mov	lr, pc
	bx	ip
.L246:
	strb	r0, [r4, #145]
	ldrb	r3, [r4, #1]
	strb	r3, [r4, #148]
	strb	r3, [r4, #61]
	ldrb	r3, [r4, #144]
	add	r3, r3, #1
	strb	r3, [r4, #60]
	ldrb	r3, [r4, #144]	@ zero_extendqisi2
	ldrb	r1, [r4, #145]	@ zero_extendqisi2
	mov	r0, r4
	orr	r1, r3, r1, asl #8
	ldrb	r2, [r4, #148]	@ zero_extendqisi2
	ldr	r3, [r4, #128]
	ldr	ip, [r4, #124]
	mov	lr, pc
	bx	ip
	ldmfd	sp!, {r4, lr}
	bx	lr
	.align	0
op_0x33__FP16_z80_cpu_context:
	@ args = 0, pretend = 0, frame = 0
	@ frame_needed = 0, current_function_anonymous_args = 0
	ldrh	r3, [r0, #48]	@ movhi
	add	r3, r3, #1
	strh	r3, [r0, #48]	@ movhi   ;; CYGNUS LOCAL nickc
	bx	lr
	.align	0
op_0x34__FP16_z80_cpu_context:
	@ args = 0, pretend = 0, frame = 0
	@ frame_needed = 0, current_function_anonymous_args = 0
	stmfd	sp!, {r4, lr}
	mov	r4, r0
	ldrb	r3, [r4, #12]	@ zero_extendqisi2
	ldrb	r1, [r4, #13]	@ zero_extendqisi2
	orr	r1, r3, r1, asl #8
	mov	r2, #0
	ldr	r3, [r4, #120]
	ldr	ip, [r4, #116]
	mov	lr, pc
	bx	ip
	add	r0, r0, #1
	strb	r0, [r4, #148]
	ldrb	r3, [r4, #0]
	and	r3, r3, #1
	ldrb	r2, [r4, #148]	@ zero_extendqisi2
	cmp	r2, #128
	movne	r1, #0
	moveq	r1, #1
	orr	r1, r3, r1, asl #2
	ldr	r3, .L254
	ldrb	r2, [r3, r2]	@ zero_extendqisi2
	tst	r0, #15
	bne	.L251
	orr	r3, r2, #16
	orr	r2, r1, r3
	b	.L252
.L255:
	.align	0
.L254:
	.word	sz53_table
.L251:
	orr	r2, r1, r2
.L252:
	strb	r2, [r4, #0]
	ldrb	r3, [r4, #12]	@ zero_extendqisi2
	ldrb	r1, [r4, #13]	@ zero_extendqisi2
	mov	r0, r4
	orr	r1, r3, r1, asl #8
	ldrb	r2, [r4, #148]	@ zero_extendqisi2
	ldr	r3, [r4, #128]
	ldr	ip, [r4, #124]
	mov	lr, pc
	bx	ip
	ldmfd	sp!, {r4, lr}
	bx	lr
	.align	0
op_0x35__FP16_z80_cpu_context:
	@ args = 0, pretend = 0, frame = 0
	@ frame_needed = 0, current_function_anonymous_args = 0
	stmfd	sp!, {r4, lr}
	mov	r4, r0
	ldrb	r3, [r4, #12]	@ zero_extendqisi2
	ldrb	r1, [r4, #13]	@ zero_extendqisi2
	orr	r1, r3, r1, asl #8
	mov	r2, #0
	ldr	r3, [r4, #120]
	ldr	ip, [r4, #116]
	mov	lr, pc
	bx	ip
	strb	r0, [r4, #148]
	ldrb	r3, [r4, #0]
	and	r3, r3, #1
	tst	r0, #15
	orreq	r3, r3, #18
.L257:
	orrne	r3, r3, #2
.L258:
	strb	r3, [r4, #0]
	ldrb	r3, [r4, #148]
	sub	r3, r3, #1
	strb	r3, [r4, #148]
	ldr	r3, .L263
	ldrb	r2, [r4, #148]	@ zero_extendqisi2
	ldrb	r1, [r3, r2]	@ zero_extendqisi2
	ldrb	r3, [r4, #0]	@ zero_extendqisi2
	cmp	r2, #127
	orreq	r3, r3, #4
.L259:
	orr	r3, r3, r1
	strb	r3, [r4, #0]
	ldrb	r3, [r4, #12]	@ zero_extendqisi2
	ldrb	r1, [r4, #13]	@ zero_extendqisi2
	mov	r0, r4
	orr	r1, r3, r1, asl #8
	ldrb	r2, [r4, #148]	@ zero_extendqisi2
	ldr	r3, [r4, #128]
	ldr	ip, [r4, #124]
	mov	lr, pc
	bx	ip
	b	.L262
.L264:
	.align	0
.L263:
	.word	sz53_table
.L262:
	ldmfd	sp!, {r4, lr}
	bx	lr
	.align	0
op_0x36__FP16_z80_cpu_context:
	@ args = 0, pretend = 0, frame = 0
	@ frame_needed = 0, current_function_anonymous_args = 0
	stmfd	sp!, {r4, lr}
	mov	r4, r0
	ldrb	r3, [r4, #88]	@ zero_extendqisi2
	cmp	r3, #0
	beq	.L266
	ldr	r1, [r4, #136]
	ldr	ip, [r4, #132]
	mov	lr, pc
	bx	ip
	b	.L267
.L266:
	ldrh	r1, [r4, #52]	@ movhi
	add	r3, r1, #1
	strh	r3, [r4, #52]	@ movhi   ;; CYGNUS LOCAL nickc
	mov	r1, r1, asl #16
	mov	r0, r4
	mov	r1, r1, lsr #16
	mov	r2, #0
	ldr	r3, [r4, #120]
	ldr	ip, [r4, #116]
	mov	lr, pc
	bx	ip
.L267:
	strb	r0, [r4, #148]
	ldrb	r3, [r4, #12]	@ zero_extendqisi2
	ldrb	r1, [r4, #13]	@ zero_extendqisi2
	mov	r0, r4
	orr	r1, r3, r1, asl #8
	ldrb	r2, [r4, #148]	@ zero_extendqisi2
	ldr	r3, [r4, #128]
	ldr	ip, [r4, #124]
	mov	lr, pc
	bx	ip
	ldmfd	sp!, {r4, lr}
	bx	lr
	.align	0
op_0x37__FP16_z80_cpu_context:
	@ args = 0, pretend = 0, frame = 0
	@ frame_needed = 0, current_function_anonymous_args = 0
	ldrb	r3, [r0, #0]
	and	r3, r3, #196
	ldrb	r2, [r0, #1]
	and	r2, r2, #40
	orr	r3, r3, r2
	orr	r3, r3, #1
	strb	r3, [r0, #0]
	bx	lr
	.align	0
op_0x38__FP16_z80_cpu_context:
	@ args = 0, pretend = 0, frame = 0
	@ frame_needed = 0, current_function_anonymous_args = 0
	stmfd	sp!, {r4, lr}
	mov	r4, r0
	ldrb	r3, [r4, #88]	@ zero_extendqisi2
	cmp	r3, #0
	beq	.L272
	ldr	r1, [r4, #136]
	ldr	ip, [r4, #132]
	mov	lr, pc
	bx	ip
	b	.L273
.L272:
	ldrh	r1, [r4, #52]	@ movhi
	add	r3, r1, #1
	strh	r3, [r4, #52]	@ movhi   ;; CYGNUS LOCAL nickc
	mov	r1, r1, asl #16
	mov	r0, r4
	mov	r1, r1, lsr #16
	mov	r2, #0
	ldr	r3, [r4, #120]
	ldr	ip, [r4, #116]
	mov	lr, pc
	bx	ip
.L273:
	strb	r0, [r4, #148]
	tst	r0, #128
	orrne	r3, r0, #128
.L274:
	ldreqb	r3, [r4, #148]
.L275:
	strb	r3, [r4, #149]
	ldrb	ip, [r4, #0]
	tst	ip, #1
	beq	.L271
	ldrsb	r3, [r4, #149]
	ldrh	r2, [r4, #52]	@ movhi
	add	r3, r3, r2
	strh	r3, [r4, #52]	@ movhi   ;; CYGNUS LOCAL nickc
	strh	r3, [r4, #60]	@ movhi   ;; CYGNUS LOCAL nickc
.L271:
	ldmfd	sp!, {r4, lr}
	bx	lr
	.align	0
op_0x39__FP16_z80_cpu_context:
	@ args = 0, pretend = 0, frame = 0
	@ frame_needed = 0, current_function_anonymous_args = 0
	stmfd	sp!, {lr}
	mov	ip, r0
	ldrb	r1, [ip, #12]	@ zero_extendqisi2
	ldrb	r3, [ip, #13]	@ zero_extendqisi2
	orr	r1, r1, r3, asl #8
	ldrb	r3, [ip, #48]	@ zero_extendqisi2
	ldrb	r2, [ip, #49]	@ zero_extendqisi2
	orr	r3, r3, r2, asl #8
	add	r1, r1, r3
	ldrh	r0, [ip, #12]	@ movhi
	and	r3, r0, #2048
	ldrh	r2, [ip, #48]	@ movhi
	and	r2, r2, #2048
	cmp	r2, #0
	movne	r2, #2
	moveq	r2, #0
	cmp	r3, #0
	orrne	r2, r2, #1
	and	r3, r1, #2048
	mov	r3, r3, lsr #9
	orr	r2, r2, r3
	and	r2, r2, #255
	add	r0, r0, #1
	strh	r0, [ip, #60]	@ movhi   ;; CYGNUS LOCAL nickc
	strh	r1, [ip, #12]	@ movhi   ;; CYGNUS LOCAL nickc
	ldrb	r3, [ip, #0]
	and	lr, r3, #196
	mov	r0, r1, lsr #8
	and	r0, r0, #40
	ldr	r3, .L284
	ldrb	r2, [r3, r2]	@ zero_extendqisi2
	tst	r1, #65536
	beq	.L280
	orr	r3, r0, #1
	orr	r1, lr, r3
	b	.L283
.L285:
	.align	0
.L284:
	.word	halfcarry_add_table
.L280:
	orr	r1, lr, r0
.L283:
	orr	r1, r1, r2
	strb	r1, [ip, #0]
	ldmfd	sp!, {ip}
	bx	ip
	.align	0
op_0x3a__FP16_z80_cpu_context:
	@ args = 0, pretend = 0, frame = 0
	@ frame_needed = 0, current_function_anonymous_args = 0
	stmfd	sp!, {r4, lr}
	mov	r4, r0
	ldrb	r3, [r4, #88]	@ zero_extendqisi2
	cmp	r3, #0
	beq	.L287
	ldr	r1, [r4, #136]
	ldr	ip, [r4, #132]
	mov	lr, pc
	bx	ip
	b	.L288
.L287:
	ldrh	r1, [r4, #52]	@ movhi
	add	r3, r1, #1
	strh	r3, [r4, #52]	@ movhi   ;; CYGNUS LOCAL nickc
	mov	r1, r1, asl #16
	mov	r0, r4
	mov	r1, r1, lsr #16
	mov	r2, #0
	ldr	r3, [r4, #120]
	ldr	ip, [r4, #116]
	mov	lr, pc
	bx	ip
.L288:
	strb	r0, [r4, #144]
	ldrb	r3, [r4, #88]	@ zero_extendqisi2
	cmp	r3, #0
	beq	.L289
	mov	r0, r4
	ldr	r1, [r4, #136]
	ldr	ip, [r4, #132]
	mov	lr, pc
	bx	ip
	b	.L290
.L289:
	ldrh	r1, [r4, #52]	@ movhi
	add	r3, r1, #1
	strh	r3, [r4, #52]	@ movhi   ;; CYGNUS LOCAL nickc
	mov	r1, r1, asl #16
	mov	r0, r4
	mov	r1, r1, lsr #16
	mov	r2, #0
	ldr	r3, [r4, #120]
	ldr	ip, [r4, #116]
	mov	lr, pc
	bx	ip
.L290:
	strb	r0, [r4, #145]
	ldrb	r3, [r4, #144]	@ zero_extendqisi2
	ldrb	r1, [r4, #145]	@ zero_extendqisi2
	mov	r0, r4
	orr	r1, r3, r1, asl #8
	mov	r2, #0
	ldr	r3, [r4, #120]
	ldr	ip, [r4, #116]
	mov	lr, pc
	bx	ip
	strb	r0, [r4, #148]
	strb	r0, [r4, #1]
	ldrh	r3, [r4, #144]	@ movhi
	add	r3, r3, #1
	strh	r3, [r4, #60]	@ movhi   ;; CYGNUS LOCAL nickc
	ldmfd	sp!, {r4, lr}
	bx	lr
	.align	0
op_0x3b__FP16_z80_cpu_context:
	@ args = 0, pretend = 0, frame = 0
	@ frame_needed = 0, current_function_anonymous_args = 0
	ldrh	r3, [r0, #48]	@ movhi
	sub	r3, r3, #1
	strh	r3, [r0, #48]	@ movhi   ;; CYGNUS LOCAL nickc
	bx	lr
	.align	0
op_0x3c__FP16_z80_cpu_context:
	@ args = 0, pretend = 0, frame = 0
	@ frame_needed = 0, current_function_anonymous_args = 0
	ldrb	r2, [r0, #1]
	add	r2, r2, #1
	strb	r2, [r0, #1]
	ldrb	r3, [r0, #0]
	and	r3, r3, #1
	ldrb	r1, [r0, #1]	@ zero_extendqisi2
	cmp	r1, #128
	movne	ip, #0
	moveq	ip, #1
	orr	ip, r3, ip, asl #2
	ldr	r3, .L298
	ldrb	r1, [r3, r1]	@ zero_extendqisi2
	tst	r2, #15
	bne	.L295
	orr	r3, r1, #16
	orr	r1, ip, r3
	b	.L296
.L299:
	.align	0
.L298:
	.word	sz53_table
.L295:
	orr	r1, ip, r1
.L296:
	strb	r1, [r0, #0]
	bx	lr
	.align	0
op_0x3d__FP16_z80_cpu_context:
	@ args = 0, pretend = 0, frame = 0
	@ frame_needed = 0, current_function_anonymous_args = 0
	ldrb	r3, [r0, #0]
	and	r3, r3, #1
	ldrb	ip, [r0, #1]
	tst	ip, #15
	orreq	r3, r3, #18
.L301:
	orrne	r3, r3, #2
.L302:
	strb	r3, [r0, #0]
	ldrb	r3, [r0, #1]
	sub	r3, r3, #1
	strb	r3, [r0, #1]
	ldr	r3, .L306
	ldrb	r2, [r0, #1]	@ zero_extendqisi2
	ldrb	r1, [r3, r2]	@ zero_extendqisi2
	ldrb	r3, [r0, #0]	@ zero_extendqisi2
	cmp	r2, #127
	orreq	r3, r3, #4
.L303:
	orr	r3, r3, r1
	strb	r3, [r0, #0]
	bx	lr
.L307:
	.align	0
.L306:
	.word	sz53_table
	.align	0
op_0x3e__FP16_z80_cpu_context:
	@ args = 0, pretend = 0, frame = 0
	@ frame_needed = 0, current_function_anonymous_args = 0
	stmfd	sp!, {r4, lr}
	mov	r4, r0
	ldrb	r3, [r4, #88]	@ zero_extendqisi2
	cmp	r3, #0
	beq	.L309
	ldr	r1, [r4, #136]
	ldr	ip, [r4, #132]
	mov	lr, pc
	bx	ip
	b	.L310
.L309:
	ldrh	r1, [r4, #52]	@ movhi
	add	r3, r1, #1
	strh	r3, [r4, #52]	@ movhi   ;; CYGNUS LOCAL nickc
	mov	r1, r1, asl #16
	mov	r0, r4
	mov	r1, r1, lsr #16
	mov	r2, #0
	ldr	r3, [r4, #120]
	ldr	ip, [r4, #116]
	mov	lr, pc
	bx	ip
.L310:
	strb	r0, [r4, #148]
	strb	r0, [r4, #1]
	ldmfd	sp!, {r4, lr}
	bx	lr
	.align	0
op_0x3f__FP16_z80_cpu_context:
	@ args = 0, pretend = 0, frame = 0
	@ frame_needed = 0, current_function_anonymous_args = 0
	ldrb	r2, [r0, #0]
	and	r1, r2, #196
	ldrb	r3, [r0, #1]
	and	r3, r3, #40
	tst	r2, #1
	orrne	r3, r3, #16
.L313:
	orreq	r3, r3, #1
.L316:
	orr	r2, r1, r3
	strb	r2, [r0, #0]
	bx	lr
	.align	0
op_0x40__FP16_z80_cpu_context:
	@ args = 0, pretend = 0, frame = 0
	@ frame_needed = 0, current_function_anonymous_args = 0
	bx	lr
	.align	0
op_0x41__FP16_z80_cpu_context:
	@ args = 0, pretend = 0, frame = 0
	@ frame_needed = 0, current_function_anonymous_args = 0
	ldrb	r3, [r0, #4]
	strb	r3, [r0, #5]
	bx	lr
	.align	0
op_0x42__FP16_z80_cpu_context:
	@ args = 0, pretend = 0, frame = 0
	@ frame_needed = 0, current_function_anonymous_args = 0
	ldrb	r3, [r0, #9]
	strb	r3, [r0, #5]
	bx	lr
	.align	0
op_0x43__FP16_z80_cpu_context:
	@ args = 0, pretend = 0, frame = 0
	@ frame_needed = 0, current_function_anonymous_args = 0
	ldrb	r3, [r0, #8]
	strb	r3, [r0, #5]
	bx	lr
	.align	0
op_0x44__FP16_z80_cpu_context:
	@ args = 0, pretend = 0, frame = 0
	@ frame_needed = 0, current_function_anonymous_args = 0
	ldrb	r3, [r0, #13]
	strb	r3, [r0, #5]
	bx	lr
	.align	0
op_0x45__FP16_z80_cpu_context:
	@ args = 0, pretend = 0, frame = 0
	@ frame_needed = 0, current_function_anonymous_args = 0
	ldrb	r3, [r0, #12]
	strb	r3, [r0, #5]
	bx	lr
	.align	0
op_0x46__FP16_z80_cpu_context:
	@ args = 0, pretend = 0, frame = 0
	@ frame_needed = 0, current_function_anonymous_args = 0
	stmfd	sp!, {r4, lr}
	mov	r4, r0
	ldrb	r3, [r4, #12]	@ zero_extendqisi2
	ldrb	r1, [r4, #13]	@ zero_extendqisi2
	orr	r1, r3, r1, asl #8
	mov	r2, #0
	ldr	r3, [r4, #120]
	ldr	ip, [r4, #116]
	mov	lr, pc
	bx	ip
	strb	r0, [r4, #148]
	strb	r0, [r4, #5]
	ldmfd	sp!, {r4, lr}
	bx	lr
	.align	0
op_0x47__FP16_z80_cpu_context:
	@ args = 0, pretend = 0, frame = 0
	@ frame_needed = 0, current_function_anonymous_args = 0
	ldrb	r3, [r0, #1]
	strb	r3, [r0, #5]
	bx	lr
	.align	0
op_0x48__FP16_z80_cpu_context:
	@ args = 0, pretend = 0, frame = 0
	@ frame_needed = 0, current_function_anonymous_args = 0
	ldrb	r3, [r0, #5]
	strb	r3, [r0, #4]
	bx	lr
	.align	0
op_0x49__FP16_z80_cpu_context:
	@ args = 0, pretend = 0, frame = 0
	@ frame_needed = 0, current_function_anonymous_args = 0
	bx	lr
	.align	0
op_0x4a__FP16_z80_cpu_context:
	@ args = 0, pretend = 0, frame = 0
	@ frame_needed = 0, current_function_anonymous_args = 0
	ldrb	r3, [r0, #9]
	strb	r3, [r0, #4]
	bx	lr
	.align	0
op_0x4b__FP16_z80_cpu_context:
	@ args = 0, pretend = 0, frame = 0
	@ frame_needed = 0, current_function_anonymous_args = 0
	ldrb	r3, [r0, #8]
	strb	r3, [r0, #4]
	bx	lr
	.align	0
op_0x4c__FP16_z80_cpu_context:
	@ args = 0, pretend = 0, frame = 0
	@ frame_needed = 0, current_function_anonymous_args = 0
	ldrb	r3, [r0, #13]
	strb	r3, [r0, #4]
	bx	lr
	.align	0
op_0x4d__FP16_z80_cpu_context:
	@ args = 0, pretend = 0, frame = 0
	@ frame_needed = 0, current_function_anonymous_args = 0
	ldrb	r3, [r0, #12]
	strb	r3, [r0, #4]
	bx	lr
	.align	0
op_0x4e__FP16_z80_cpu_context:
	@ args = 0, pretend = 0, frame = 0
	@ frame_needed = 0, current_function_anonymous_args = 0
	stmfd	sp!, {r4, lr}
	mov	r4, r0
	ldrb	r3, [r4, #12]	@ zero_extendqisi2
	ldrb	r1, [r4, #13]	@ zero_extendqisi2
	orr	r1, r3, r1, asl #8
	mov	r2, #0
	ldr	r3, [r4, #120]
	ldr	ip, [r4, #116]
	mov	lr, pc
	bx	ip
	strb	r0, [r4, #148]
	strb	r0, [r4, #4]
	ldmfd	sp!, {r4, lr}
	bx	lr
	.align	0
op_0x4f__FP16_z80_cpu_context:
	@ args = 0, pretend = 0, frame = 0
	@ frame_needed = 0, current_function_anonymous_args = 0
	ldrb	r3, [r0, #1]
	strb	r3, [r0, #4]
	bx	lr
	.align	0
op_0x50__FP16_z80_cpu_context:
	@ args = 0, pretend = 0, frame = 0
	@ frame_needed = 0, current_function_anonymous_args = 0
	ldrb	r3, [r0, #5]
	strb	r3, [r0, #9]
	bx	lr
	.align	0
op_0x51__FP16_z80_cpu_context:
	@ args = 0, pretend = 0, frame = 0
	@ frame_needed = 0, current_function_anonymous_args = 0
	ldrb	r3, [r0, #4]
	strb	r3, [r0, #9]
	bx	lr
	.align	0
op_0x52__FP16_z80_cpu_context:
	@ args = 0, pretend = 0, frame = 0
	@ frame_needed = 0, current_function_anonymous_args = 0
	bx	lr
	.align	0
op_0x53__FP16_z80_cpu_context:
	@ args = 0, pretend = 0, frame = 0
	@ frame_needed = 0, current_function_anonymous_args = 0
	ldrb	r3, [r0, #8]
	strb	r3, [r0, #9]
	bx	lr
	.align	0
op_0x54__FP16_z80_cpu_context:
	@ args = 0, pretend = 0, frame = 0
	@ frame_needed = 0, current_function_anonymous_args = 0
	ldrb	r3, [r0, #13]
	strb	r3, [r0, #9]
	bx	lr
	.align	0
op_0x55__FP16_z80_cpu_context:
	@ args = 0, pretend = 0, frame = 0
	@ frame_needed = 0, current_function_anonymous_args = 0
	ldrb	r3, [r0, #12]
	strb	r3, [r0, #9]
	bx	lr
	.align	0
op_0x56__FP16_z80_cpu_context:
	@ args = 0, pretend = 0, frame = 0
	@ frame_needed = 0, current_function_anonymous_args = 0
	stmfd	sp!, {r4, lr}
	mov	r4, r0
	ldrb	r3, [r4, #12]	@ zero_extendqisi2
	ldrb	r1, [r4, #13]	@ zero_extendqisi2
	orr	r1, r3, r1, asl #8
	mov	r2, #0
	ldr	r3, [r4, #120]
	ldr	ip, [r4, #116]
	mov	lr, pc
	bx	ip
	strb	r0, [r4, #148]
	strb	r0, [r4, #9]
	ldmfd	sp!, {r4, lr}
	bx	lr
	.align	0
op_0x57__FP16_z80_cpu_context:
	@ args = 0, pretend = 0, frame = 0
	@ frame_needed = 0, current_function_anonymous_args = 0
	ldrb	r3, [r0, #1]
	strb	r3, [r0, #9]
	bx	lr
	.align	0
op_0x58__FP16_z80_cpu_context:
	@ args = 0, pretend = 0, frame = 0
	@ frame_needed = 0, current_function_anonymous_args = 0
	ldrb	r3, [r0, #5]
	strb	r3, [r0, #8]
	bx	lr
	.align	0
op_0x59__FP16_z80_cpu_context:
	@ args = 0, pretend = 0, frame = 0
	@ frame_needed = 0, current_function_anonymous_args = 0
	ldrb	r3, [r0, #4]
	strb	r3, [r0, #8]
	bx	lr
	.align	0
op_0x5a__FP16_z80_cpu_context:
	@ args = 0, pretend = 0, frame = 0
	@ frame_needed = 0, current_function_anonymous_args = 0
	ldrb	r3, [r0, #9]
	strb	r3, [r0, #8]
	bx	lr
	.align	0
op_0x5b__FP16_z80_cpu_context:
	@ args = 0, pretend = 0, frame = 0
	@ frame_needed = 0, current_function_anonymous_args = 0
	bx	lr
	.align	0
op_0x5c__FP16_z80_cpu_context:
	@ args = 0, pretend = 0, frame = 0
	@ frame_needed = 0, current_function_anonymous_args = 0
	ldrb	r3, [r0, #13]
	strb	r3, [r0, #8]
	bx	lr
	.align	0
op_0x5d__FP16_z80_cpu_context:
	@ args = 0, pretend = 0, frame = 0
	@ frame_needed = 0, current_function_anonymous_args = 0
	ldrb	r3, [r0, #12]
	strb	r3, [r0, #8]
	bx	lr
	.align	0
op_0x5e__FP16_z80_cpu_context:
	@ args = 0, pretend = 0, frame = 0
	@ frame_needed = 0, current_function_anonymous_args = 0
	stmfd	sp!, {r4, lr}
	mov	r4, r0
	ldrb	r3, [r4, #12]	@ zero_extendqisi2
	ldrb	r1, [r4, #13]	@ zero_extendqisi2
	orr	r1, r3, r1, asl #8
	mov	r2, #0
	ldr	r3, [r4, #120]
	ldr	ip, [r4, #116]
	mov	lr, pc
	bx	ip
	strb	r0, [r4, #148]
	strb	r0, [r4, #8]
	ldmfd	sp!, {r4, lr}
	bx	lr
	.align	0
op_0x5f__FP16_z80_cpu_context:
	@ args = 0, pretend = 0, frame = 0
	@ frame_needed = 0, current_function_anonymous_args = 0
	ldrb	r3, [r0, #1]
	strb	r3, [r0, #8]
	bx	lr
	.align	0
op_0x60__FP16_z80_cpu_context:
	@ args = 0, pretend = 0, frame = 0
	@ frame_needed = 0, current_function_anonymous_args = 0
	ldrb	r3, [r0, #5]
	strb	r3, [r0, #13]
	bx	lr
	.align	0
op_0x61__FP16_z80_cpu_context:
	@ args = 0, pretend = 0, frame = 0
	@ frame_needed = 0, current_function_anonymous_args = 0
	ldrb	r3, [r0, #4]
	strb	r3, [r0, #13]
	bx	lr
	.align	0
op_0x62__FP16_z80_cpu_context:
	@ args = 0, pretend = 0, frame = 0
	@ frame_needed = 0, current_function_anonymous_args = 0
	ldrb	r3, [r0, #9]
	strb	r3, [r0, #13]
	bx	lr
	.align	0
op_0x63__FP16_z80_cpu_context:
	@ args = 0, pretend = 0, frame = 0
	@ frame_needed = 0, current_function_anonymous_args = 0
	ldrb	r3, [r0, #8]
	strb	r3, [r0, #13]
	bx	lr
	.align	0
op_0x64__FP16_z80_cpu_context:
	@ args = 0, pretend = 0, frame = 0
	@ frame_needed = 0, current_function_anonymous_args = 0
	bx	lr
	.align	0
op_0x65__FP16_z80_cpu_context:
	@ args = 0, pretend = 0, frame = 0
	@ frame_needed = 0, current_function_anonymous_args = 0
	ldrb	r3, [r0, #12]
	strb	r3, [r0, #13]
	bx	lr
	.align	0
op_0x66__FP16_z80_cpu_context:
	@ args = 0, pretend = 0, frame = 0
	@ frame_needed = 0, current_function_anonymous_args = 0
	stmfd	sp!, {r4, lr}
	mov	r4, r0
	ldrb	r3, [r4, #12]	@ zero_extendqisi2
	ldrb	r1, [r4, #13]	@ zero_extendqisi2
	orr	r1, r3, r1, asl #8
	mov	r2, #0
	ldr	r3, [r4, #120]
	ldr	ip, [r4, #116]
	mov	lr, pc
	bx	ip
	strb	r0, [r4, #148]
	strb	r0, [r4, #13]
	ldmfd	sp!, {r4, lr}
	bx	lr
	.align	0
op_0x67__FP16_z80_cpu_context:
	@ args = 0, pretend = 0, frame = 0
	@ frame_needed = 0, current_function_anonymous_args = 0
	ldrb	r3, [r0, #1]
	strb	r3, [r0, #13]
	bx	lr
	.align	0
op_0x68__FP16_z80_cpu_context:
	@ args = 0, pretend = 0, frame = 0
	@ frame_needed = 0, current_function_anonymous_args = 0
	ldrb	r3, [r0, #5]
	strb	r3, [r0, #12]
	bx	lr
	.align	0
op_0x69__FP16_z80_cpu_context:
	@ args = 0, pretend = 0, frame = 0
	@ frame_needed = 0, current_function_anonymous_args = 0
	ldrb	r3, [r0, #4]
	strb	r3, [r0, #12]
	bx	lr
	.align	0
op_0x6a__FP16_z80_cpu_context:
	@ args = 0, pretend = 0, frame = 0
	@ frame_needed = 0, current_function_anonymous_args = 0
	ldrb	r3, [r0, #9]
	strb	r3, [r0, #12]
	bx	lr
	.align	0
op_0x6b__FP16_z80_cpu_context:
	@ args = 0, pretend = 0, frame = 0
	@ frame_needed = 0, current_function_anonymous_args = 0
	ldrb	r3, [r0, #8]
	strb	r3, [r0, #12]
	bx	lr
	.align	0
op_0x6c__FP16_z80_cpu_context:
	@ args = 0, pretend = 0, frame = 0
	@ frame_needed = 0, current_function_anonymous_args = 0
	ldrb	r3, [r0, #13]
	strb	r3, [r0, #12]
	bx	lr
	.align	0
op_0x6d__FP16_z80_cpu_context:
	@ args = 0, pretend = 0, frame = 0
	@ frame_needed = 0, current_function_anonymous_args = 0
	bx	lr
	.align	0
op_0x6e__FP16_z80_cpu_context:
	@ args = 0, pretend = 0, frame = 0
	@ frame_needed = 0, current_function_anonymous_args = 0
	stmfd	sp!, {r4, lr}
	mov	r4, r0
	ldrb	r3, [r4, #12]	@ zero_extendqisi2
	ldrb	r1, [r4, #13]	@ zero_extendqisi2
	orr	r1, r3, r1, asl #8
	mov	r2, #0
	ldr	r3, [r4, #120]
	ldr	ip, [r4, #116]
	mov	lr, pc
	bx	ip
	strb	r0, [r4, #148]
	strb	r0, [r4, #12]
	ldmfd	sp!, {r4, lr}
	bx	lr
	.align	0
op_0x6f__FP16_z80_cpu_context:
	@ args = 0, pretend = 0, frame = 0
	@ frame_needed = 0, current_function_anonymous_args = 0
	ldrb	r3, [r0, #1]
	strb	r3, [r0, #12]
	bx	lr
	.align	0
op_0x70__FP16_z80_cpu_context:
	@ args = 0, pretend = 0, frame = 0
	@ frame_needed = 0, current_function_anonymous_args = 0
	stmfd	sp!, {lr}
	mov	ip, r0
	ldrb	r3, [ip, #5]
	strb	r3, [ip, #148]
	ldrb	r3, [ip, #12]	@ zero_extendqisi2
	ldrb	r1, [ip, #13]	@ zero_extendqisi2
	orr	r1, r3, r1, asl #8
	ldrb	r2, [ip, #148]	@ zero_extendqisi2
	ldr	r3, [ip, #128]
	ldr	ip, [ip, #124]
	mov	lr, pc
	bx	ip
	ldmfd	sp!, {ip}
	bx	ip
	.align	0
op_0x71__FP16_z80_cpu_context:
	@ args = 0, pretend = 0, frame = 0
	@ frame_needed = 0, current_function_anonymous_args = 0
	stmfd	sp!, {lr}
	mov	ip, r0
	ldrb	r3, [ip, #4]
	strb	r3, [ip, #148]
	ldrb	r3, [ip, #12]	@ zero_extendqisi2
	ldrb	r1, [ip, #13]	@ zero_extendqisi2
	orr	r1, r3, r1, asl #8
	ldrb	r2, [ip, #148]	@ zero_extendqisi2
	ldr	r3, [ip, #128]
	ldr	ip, [ip, #124]
	mov	lr, pc
	bx	ip
	ldmfd	sp!, {ip}
	bx	ip
	.align	0
op_0x72__FP16_z80_cpu_context:
	@ args = 0, pretend = 0, frame = 0
	@ frame_needed = 0, current_function_anonymous_args = 0
	stmfd	sp!, {lr}
	mov	ip, r0
	ldrb	r3, [ip, #9]
	strb	r3, [ip, #148]
	ldrb	r3, [ip, #12]	@ zero_extendqisi2
	ldrb	r1, [ip, #13]	@ zero_extendqisi2
	orr	r1, r3, r1, asl #8
	ldrb	r2, [ip, #148]	@ zero_extendqisi2
	ldr	r3, [ip, #128]
	ldr	ip, [ip, #124]
	mov	lr, pc
	bx	ip
	ldmfd	sp!, {ip}
	bx	ip
	.align	0
op_0x73__FP16_z80_cpu_context:
	@ args = 0, pretend = 0, frame = 0
	@ frame_needed = 0, current_function_anonymous_args = 0
	stmfd	sp!, {lr}
	mov	ip, r0
	ldrb	r3, [ip, #8]
	strb	r3, [ip, #148]
	ldrb	r3, [ip, #12]	@ zero_extendqisi2
	ldrb	r1, [ip, #13]	@ zero_extendqisi2
	orr	r1, r3, r1, asl #8
	ldrb	r2, [ip, #148]	@ zero_extendqisi2
	ldr	r3, [ip, #128]
	ldr	ip, [ip, #124]
	mov	lr, pc
	bx	ip
	ldmfd	sp!, {ip}
	bx	ip
	.align	0
op_0x74__FP16_z80_cpu_context:
	@ args = 0, pretend = 0, frame = 0
	@ frame_needed = 0, current_function_anonymous_args = 0
	stmfd	sp!, {lr}
	mov	ip, r0
	ldrb	r3, [ip, #13]
	strb	r3, [ip, #148]
	ldrb	r3, [ip, #12]	@ zero_extendqisi2
	ldrb	r1, [ip, #13]	@ zero_extendqisi2
	orr	r1, r3, r1, asl #8
	ldrb	r2, [ip, #148]	@ zero_extendqisi2
	ldr	r3, [ip, #128]
	ldr	ip, [ip, #124]
	mov	lr, pc
	bx	ip
	ldmfd	sp!, {ip}
	bx	ip
	.align	0
op_0x75__FP16_z80_cpu_context:
	@ args = 0, pretend = 0, frame = 0
	@ frame_needed = 0, current_function_anonymous_args = 0
	stmfd	sp!, {lr}
	mov	ip, r0
	ldrb	r3, [ip, #12]
	strb	r3, [ip, #148]
	ldrb	r3, [ip, #12]	@ zero_extendqisi2
	ldrb	r1, [ip, #13]	@ zero_extendqisi2
	orr	r1, r3, r1, asl #8
	ldrb	r2, [ip, #148]	@ zero_extendqisi2
	ldr	r3, [ip, #128]
	ldr	ip, [ip, #124]
	mov	lr, pc
	bx	ip
	ldmfd	sp!, {ip}
	bx	ip
	.align	0
op_0x76__FP16_z80_cpu_context:
	@ args = 0, pretend = 0, frame = 0
	@ frame_needed = 0, current_function_anonymous_args = 0
	mov	r3, #1
	str	r3, [r0, #68]
	ldrh	r3, [r0, #52]	@ movhi
	sub	r3, r3, #1
	strh	r3, [r0, #52]	@ movhi   ;; CYGNUS LOCAL nickc
	bx	lr
	.align	0
op_0x77__FP16_z80_cpu_context:
	@ args = 0, pretend = 0, frame = 0
	@ frame_needed = 0, current_function_anonymous_args = 0
	stmfd	sp!, {lr}
	mov	ip, r0
	ldrb	r3, [ip, #1]
	strb	r3, [ip, #148]
	ldrb	r3, [ip, #12]	@ zero_extendqisi2
	ldrb	r1, [ip, #13]	@ zero_extendqisi2
	orr	r1, r3, r1, asl #8
	ldrb	r2, [ip, #148]	@ zero_extendqisi2
	ldr	r3, [ip, #128]
	ldr	ip, [ip, #124]
	mov	lr, pc
	bx	ip
	ldmfd	sp!, {ip}
	bx	ip
	.align	0
op_0x78__FP16_z80_cpu_context:
	@ args = 0, pretend = 0, frame = 0
	@ frame_needed = 0, current_function_anonymous_args = 0
	ldrb	r3, [r0, #5]
	strb	r3, [r0, #1]
	bx	lr
	.align	0
op_0x79__FP16_z80_cpu_context:
	@ args = 0, pretend = 0, frame = 0
	@ frame_needed = 0, current_function_anonymous_args = 0
	ldrb	r3, [r0, #4]
	strb	r3, [r0, #1]
	bx	lr
	.align	0
op_0x7a__FP16_z80_cpu_context:
	@ args = 0, pretend = 0, frame = 0
	@ frame_needed = 0, current_function_anonymous_args = 0
	ldrb	r3, [r0, #9]
	strb	r3, [r0, #1]
	bx	lr
	.align	0
op_0x7b__FP16_z80_cpu_context:
	@ args = 0, pretend = 0, frame = 0
	@ frame_needed = 0, current_function_anonymous_args = 0
	ldrb	r3, [r0, #8]
	strb	r3, [r0, #1]
	bx	lr
	.align	0
op_0x7c__FP16_z80_cpu_context:
	@ args = 0, pretend = 0, frame = 0
	@ frame_needed = 0, current_function_anonymous_args = 0
	ldrb	r3, [r0, #13]
	strb	r3, [r0, #1]
	bx	lr
	.align	0
op_0x7d__FP16_z80_cpu_context:
	@ args = 0, pretend = 0, frame = 0
	@ frame_needed = 0, current_function_anonymous_args = 0
	ldrb	r3, [r0, #12]
	strb	r3, [r0, #1]
	bx	lr
	.align	0
op_0x7e__FP16_z80_cpu_context:
	@ args = 0, pretend = 0, frame = 0
	@ frame_needed = 0, current_function_anonymous_args = 0
	stmfd	sp!, {r4, lr}
	mov	r4, r0
	ldrb	r3, [r4, #12]	@ zero_extendqisi2
	ldrb	r1, [r4, #13]	@ zero_extendqisi2
	orr	r1, r3, r1, asl #8
	mov	r2, #0
	ldr	r3, [r4, #120]
	ldr	ip, [r4, #116]
	mov	lr, pc
	bx	ip
	strb	r0, [r4, #148]
	strb	r0, [r4, #1]
	ldmfd	sp!, {r4, lr}
	bx	lr
	.align	0
op_0x7f__FP16_z80_cpu_context:
	@ args = 0, pretend = 0, frame = 0
	@ frame_needed = 0, current_function_anonymous_args = 0
	bx	lr
	.align	0
op_0x80__FP16_z80_cpu_context:
	@ args = 0, pretend = 0, frame = 0
	@ frame_needed = 0, current_function_anonymous_args = 0
	stmfd	sp!, {lr}
	mov	ip, r0
	ldrb	r0, [ip, #1]	@ zero_extendqisi2
	ldrb	r3, [ip, #5]	@ zero_extendqisi2
	add	r0, r0, r3
	ldrb	r2, [ip, #1]
	and	r2, r2, #136
	ldrb	r3, [ip, #5]
	and	r3, r3, #136
	mov	r3, r3, lsr #2
	orr	r3, r3, r2, lsr #3
	and	r2, r0, #136
	orr	r3, r3, r2, lsr #1
	strb	r0, [ip, #1]
	ldr	r1, .L450
	and	r2, r3, #7
	ldrb	lr, [r1, r2]	@ zero_extendqisi2
	ldr	r2, .L450+4
	ldrb	r1, [r2, r3, lsr #4]	@ zero_extendqisi2
	ldr	r2, .L450+8
	ldrb	r3, [ip, #1]	@ zero_extendqisi2
	ldrb	r2, [r2, r3]	@ zero_extendqisi2
	tst	r0, #256
	beq	.L446
	orr	r3, r1, #1
	orr	r3, lr, r3
	b	.L449
.L451:
	.align	0
.L450:
	.word	halfcarry_add_table
	.word	overflow_add_table
	.word	sz53_table
.L446:
	orr	r3, lr, r1
.L449:
	orr	r3, r3, r2
	strb	r3, [ip, #0]
	ldmfd	sp!, {ip}
	bx	ip
	.align	0
op_0x81__FP16_z80_cpu_context:
	@ args = 0, pretend = 0, frame = 0
	@ frame_needed = 0, current_function_anonymous_args = 0
	stmfd	sp!, {lr}
	mov	ip, r0
	ldrb	r0, [ip, #1]	@ zero_extendqisi2
	ldrb	r3, [ip, #4]	@ zero_extendqisi2
	add	r0, r0, r3
	ldrb	r2, [ip, #1]
	and	r2, r2, #136
	ldrb	r3, [ip, #4]
	and	r3, r3, #136
	mov	r3, r3, lsr #2
	orr	r3, r3, r2, lsr #3
	and	r2, r0, #136
	orr	r3, r3, r2, lsr #1
	strb	r0, [ip, #1]
	ldr	r1, .L457
	and	r2, r3, #7
	ldrb	lr, [r1, r2]	@ zero_extendqisi2
	ldr	r2, .L457+4
	ldrb	r1, [r2, r3, lsr #4]	@ zero_extendqisi2
	ldr	r2, .L457+8
	ldrb	r3, [ip, #1]	@ zero_extendqisi2
	ldrb	r2, [r2, r3]	@ zero_extendqisi2
	tst	r0, #256
	beq	.L453
	orr	r3, r1, #1
	orr	r3, lr, r3
	b	.L456
.L458:
	.align	0
.L457:
	.word	halfcarry_add_table
	.word	overflow_add_table
	.word	sz53_table
.L453:
	orr	r3, lr, r1
.L456:
	orr	r3, r3, r2
	strb	r3, [ip, #0]
	ldmfd	sp!, {ip}
	bx	ip
	.align	0
op_0x82__FP16_z80_cpu_context:
	@ args = 0, pretend = 0, frame = 0
	@ frame_needed = 0, current_function_anonymous_args = 0
	stmfd	sp!, {lr}
	mov	ip, r0
	ldrb	r0, [ip, #1]	@ zero_extendqisi2
	ldrb	r3, [ip, #9]	@ zero_extendqisi2
	add	r0, r0, r3
	ldrb	r2, [ip, #1]
	and	r2, r2, #136
	ldrb	r3, [ip, #9]
	and	r3, r3, #136
	mov	r3, r3, lsr #2
	orr	r3, r3, r2, lsr #3
	and	r2, r0, #136
	orr	r3, r3, r2, lsr #1
	strb	r0, [ip, #1]
	ldr	r1, .L464
	and	r2, r3, #7
	ldrb	lr, [r1, r2]	@ zero_extendqisi2
	ldr	r2, .L464+4
	ldrb	r1, [r2, r3, lsr #4]	@ zero_extendqisi2
	ldr	r2, .L464+8
	ldrb	r3, [ip, #1]	@ zero_extendqisi2
	ldrb	r2, [r2, r3]	@ zero_extendqisi2
	tst	r0, #256
	beq	.L460
	orr	r3, r1, #1
	orr	r3, lr, r3
	b	.L463
.L465:
	.align	0
.L464:
	.word	halfcarry_add_table
	.word	overflow_add_table
	.word	sz53_table
.L460:
	orr	r3, lr, r1
.L463:
	orr	r3, r3, r2
	strb	r3, [ip, #0]
	ldmfd	sp!, {ip}
	bx	ip
	.align	0
op_0x83__FP16_z80_cpu_context:
	@ args = 0, pretend = 0, frame = 0
	@ frame_needed = 0, current_function_anonymous_args = 0
	stmfd	sp!, {lr}
	mov	ip, r0
	ldrb	r0, [ip, #1]	@ zero_extendqisi2
	ldrb	r3, [ip, #8]	@ zero_extendqisi2
	add	r0, r0, r3
	ldrb	r2, [ip, #1]
	and	r2, r2, #136
	ldrb	r3, [ip, #8]
	and	r3, r3, #136
	mov	r3, r3, lsr #2
	orr	r3, r3, r2, lsr #3
	and	r2, r0, #136
	orr	r3, r3, r2, lsr #1
	strb	r0, [ip, #1]
	ldr	r1, .L471
	and	r2, r3, #7
	ldrb	lr, [r1, r2]	@ zero_extendqisi2
	ldr	r2, .L471+4
	ldrb	r1, [r2, r3, lsr #4]	@ zero_extendqisi2
	ldr	r2, .L471+8
	ldrb	r3, [ip, #1]	@ zero_extendqisi2
	ldrb	r2, [r2, r3]	@ zero_extendqisi2
	tst	r0, #256
	beq	.L467
	orr	r3, r1, #1
	orr	r3, lr, r3
	b	.L470
.L472:
	.align	0
.L471:
	.word	halfcarry_add_table
	.word	overflow_add_table
	.word	sz53_table
.L467:
	orr	r3, lr, r1
.L470:
	orr	r3, r3, r2
	strb	r3, [ip, #0]
	ldmfd	sp!, {ip}
	bx	ip
	.align	0
op_0x84__FP16_z80_cpu_context:
	@ args = 0, pretend = 0, frame = 0
	@ frame_needed = 0, current_function_anonymous_args = 0
	stmfd	sp!, {lr}
	mov	ip, r0
	ldrb	r0, [ip, #1]	@ zero_extendqisi2
	ldrb	r3, [ip, #13]	@ zero_extendqisi2
	add	r0, r0, r3
	ldrb	r2, [ip, #1]
	and	r2, r2, #136
	ldrb	r3, [ip, #13]
	and	r3, r3, #136
	mov	r3, r3, lsr #2
	orr	r3, r3, r2, lsr #3
	and	r2, r0, #136
	orr	r3, r3, r2, lsr #1
	strb	r0, [ip, #1]
	ldr	r1, .L478
	and	r2, r3, #7
	ldrb	lr, [r1, r2]	@ zero_extendqisi2
	ldr	r2, .L478+4
	ldrb	r1, [r2, r3, lsr #4]	@ zero_extendqisi2
	ldr	r2, .L478+8
	ldrb	r3, [ip, #1]	@ zero_extendqisi2
	ldrb	r2, [r2, r3]	@ zero_extendqisi2
	tst	r0, #256
	beq	.L474
	orr	r3, r1, #1
	orr	r3, lr, r3
	b	.L477
.L479:
	.align	0
.L478:
	.word	halfcarry_add_table
	.word	overflow_add_table
	.word	sz53_table
.L474:
	orr	r3, lr, r1
.L477:
	orr	r3, r3, r2
	strb	r3, [ip, #0]
	ldmfd	sp!, {ip}
	bx	ip
	.align	0
op_0x85__FP16_z80_cpu_context:
	@ args = 0, pretend = 0, frame = 0
	@ frame_needed = 0, current_function_anonymous_args = 0
	stmfd	sp!, {lr}
	mov	ip, r0
	ldrb	r0, [ip, #1]	@ zero_extendqisi2
	ldrb	r3, [ip, #12]	@ zero_extendqisi2
	add	r0, r0, r3
	ldrb	r2, [ip, #1]
	and	r2, r2, #136
	ldrb	r3, [ip, #12]
	and	r3, r3, #136
	mov	r3, r3, lsr #2
	orr	r3, r3, r2, lsr #3
	and	r2, r0, #136
	orr	r3, r3, r2, lsr #1
	strb	r0, [ip, #1]
	ldr	r1, .L485
	and	r2, r3, #7
	ldrb	lr, [r1, r2]	@ zero_extendqisi2
	ldr	r2, .L485+4
	ldrb	r1, [r2, r3, lsr #4]	@ zero_extendqisi2
	ldr	r2, .L485+8
	ldrb	r3, [ip, #1]	@ zero_extendqisi2
	ldrb	r2, [r2, r3]	@ zero_extendqisi2
	tst	r0, #256
	beq	.L481
	orr	r3, r1, #1
	orr	r3, lr, r3
	b	.L484
.L486:
	.align	0
.L485:
	.word	halfcarry_add_table
	.word	overflow_add_table
	.word	sz53_table
.L481:
	orr	r3, lr, r1
.L484:
	orr	r3, r3, r2
	strb	r3, [ip, #0]
	ldmfd	sp!, {ip}
	bx	ip
	.align	0
op_0x86__FP16_z80_cpu_context:
	@ args = 0, pretend = 0, frame = 0
	@ frame_needed = 0, current_function_anonymous_args = 0
	stmfd	sp!, {r4, lr}
	mov	r4, r0
	ldrb	r3, [r4, #12]	@ zero_extendqisi2
	ldrb	r1, [r4, #13]	@ zero_extendqisi2
	orr	r1, r3, r1, asl #8
	mov	r2, #0
	ldr	r3, [r4, #120]
	ldr	ip, [r4, #116]
	mov	lr, pc
	bx	ip
	strb	r0, [r4, #148]
	ldrb	r1, [r4, #1]	@ zero_extendqisi2
	ldrb	r3, [r4, #148]	@ zero_extendqisi2
	add	r1, r1, r3
	ldrb	r3, [r4, #1]
	and	r3, r3, #136
	and	r0, r0, #136
	mov	r0, r0, lsr #2
	orr	r0, r0, r3, lsr #3
	and	r3, r1, #136
	orr	r0, r0, r3, lsr #1
	strb	r1, [r4, #1]
	ldr	r2, .L492
	and	r3, r0, #7
	ldrb	ip, [r2, r3]	@ zero_extendqisi2
	ldr	r3, .L492+4
	ldrb	r0, [r3, r0, lsr #4]	@ zero_extendqisi2
	ldr	r2, .L492+8
	ldrb	r3, [r4, #1]	@ zero_extendqisi2
	ldrb	r2, [r2, r3]	@ zero_extendqisi2
	tst	r1, #256
	beq	.L488
	orr	r3, r0, #1
	orr	r3, ip, r3
	b	.L491
.L493:
	.align	0
.L492:
	.word	halfcarry_add_table
	.word	overflow_add_table
	.word	sz53_table
.L488:
	orr	r3, ip, r0
.L491:
	orr	r3, r3, r2
	strb	r3, [r4, #0]
	ldmfd	sp!, {r4, lr}
	bx	lr
	.align	0
op_0x87__FP16_z80_cpu_context:
	@ args = 0, pretend = 0, frame = 0
	@ frame_needed = 0, current_function_anonymous_args = 0
	stmfd	sp!, {lr}
	mov	ip, r0
	ldrb	r1, [ip, #1]	@ zero_extendqisi2
	ldrb	r3, [ip, #1]
	and	r3, r3, #136
	mov	r2, r3, lsr #2
	orr	r2, r2, r3, lsr #3
	mov	r0, r1, asl #1
	and	r1, r1, #68
	orr	r1, r1, r2
	strb	r0, [ip, #1]
	ldr	r2, .L499
	and	r3, r1, #7
	ldrb	lr, [r2, r3]	@ zero_extendqisi2
	ldr	r3, .L499+4
	ldrb	r1, [r3, r1, lsr #4]	@ zero_extendqisi2
	ldr	r2, .L499+8
	ldrb	r3, [ip, #1]	@ zero_extendqisi2
	ldrb	r2, [r2, r3]	@ zero_extendqisi2
	tst	r0, #256
	beq	.L495
	orr	r3, r1, #1
	orr	r3, lr, r3
	b	.L498
.L500:
	.align	0
.L499:
	.word	halfcarry_add_table
	.word	overflow_add_table
	.word	sz53_table
.L495:
	orr	r3, lr, r1
.L498:
	orr	r3, r3, r2
	strb	r3, [ip, #0]
	ldmfd	sp!, {ip}
	bx	ip
	.align	0
op_0x88__FP16_z80_cpu_context:
	@ args = 0, pretend = 0, frame = 0
	@ frame_needed = 0, current_function_anonymous_args = 0
	stmfd	sp!, {lr}
	mov	ip, r0
	ldrb	r2, [ip, #1]	@ zero_extendqisi2
	ldrb	r3, [ip, #5]	@ zero_extendqisi2
	add	r2, r2, r3
	ldrb	r1, [ip, #0]
	and	r1, r1, #1
	add	r1, r1, r2
	ldrb	r2, [ip, #1]
	and	r2, r2, #136
	ldrb	r3, [ip, #5]
	and	r3, r3, #136
	mov	r3, r3, lsr #2
	orr	r3, r3, r2, lsr #3
	and	r2, r1, #136
	orr	r3, r3, r2, lsr #1
	strb	r1, [ip, #1]
	ldr	r0, .L506
	and	r2, r3, #7
	ldrb	lr, [r0, r2]	@ zero_extendqisi2
	ldr	r2, .L506+4
	ldrb	r0, [r2, r3, lsr #4]	@ zero_extendqisi2
	ldr	r2, .L506+8
	ldrb	r3, [ip, #1]	@ zero_extendqisi2
	ldrb	r2, [r2, r3]	@ zero_extendqisi2
	tst	r1, #256
	beq	.L502
	orr	r3, r0, #1
	orr	r3, lr, r3
	b	.L505
.L507:
	.align	0
.L506:
	.word	halfcarry_add_table
	.word	overflow_add_table
	.word	sz53_table
.L502:
	orr	r3, lr, r0
.L505:
	orr	r3, r3, r2
	strb	r3, [ip, #0]
	ldmfd	sp!, {ip}
	bx	ip
	.align	0
op_0x89__FP16_z80_cpu_context:
	@ args = 0, pretend = 0, frame = 0
	@ frame_needed = 0, current_function_anonymous_args = 0
	stmfd	sp!, {lr}
	mov	ip, r0
	ldrb	r2, [ip, #1]	@ zero_extendqisi2
	ldrb	r3, [ip, #4]	@ zero_extendqisi2
	add	r2, r2, r3
	ldrb	r1, [ip, #0]
	and	r1, r1, #1
	add	r1, r1, r2
	ldrb	r2, [ip, #1]
	and	r2, r2, #136
	ldrb	r3, [ip, #4]
	and	r3, r3, #136
	mov	r3, r3, lsr #2
	orr	r3, r3, r2, lsr #3
	and	r2, r1, #136
	orr	r3, r3, r2, lsr #1
	strb	r1, [ip, #1]
	ldr	r0, .L513
	and	r2, r3, #7
	ldrb	lr, [r0, r2]	@ zero_extendqisi2
	ldr	r2, .L513+4
	ldrb	r0, [r2, r3, lsr #4]	@ zero_extendqisi2
	ldr	r2, .L513+8
	ldrb	r3, [ip, #1]	@ zero_extendqisi2
	ldrb	r2, [r2, r3]	@ zero_extendqisi2
	tst	r1, #256
	beq	.L509
	orr	r3, r0, #1
	orr	r3, lr, r3
	b	.L512
.L514:
	.align	0
.L513:
	.word	halfcarry_add_table
	.word	overflow_add_table
	.word	sz53_table
.L509:
	orr	r3, lr, r0
.L512:
	orr	r3, r3, r2
	strb	r3, [ip, #0]
	ldmfd	sp!, {ip}
	bx	ip
	.align	0
op_0x8a__FP16_z80_cpu_context:
	@ args = 0, pretend = 0, frame = 0
	@ frame_needed = 0, current_function_anonymous_args = 0
	stmfd	sp!, {lr}
	mov	ip, r0
	ldrb	r2, [ip, #1]	@ zero_extendqisi2
	ldrb	r3, [ip, #9]	@ zero_extendqisi2
	add	r2, r2, r3
	ldrb	r1, [ip, #0]
	and	r1, r1, #1
	add	r1, r1, r2
	ldrb	r2, [ip, #1]
	and	r2, r2, #136
	ldrb	r3, [ip, #9]
	and	r3, r3, #136
	mov	r3, r3, lsr #2
	orr	r3, r3, r2, lsr #3
	and	r2, r1, #136
	orr	r3, r3, r2, lsr #1
	strb	r1, [ip, #1]
	ldr	r0, .L520
	and	r2, r3, #7
	ldrb	lr, [r0, r2]	@ zero_extendqisi2
	ldr	r2, .L520+4
	ldrb	r0, [r2, r3, lsr #4]	@ zero_extendqisi2
	ldr	r2, .L520+8
	ldrb	r3, [ip, #1]	@ zero_extendqisi2
	ldrb	r2, [r2, r3]	@ zero_extendqisi2
	tst	r1, #256
	beq	.L516
	orr	r3, r0, #1
	orr	r3, lr, r3
	b	.L519
.L521:
	.align	0
.L520:
	.word	halfcarry_add_table
	.word	overflow_add_table
	.word	sz53_table
.L516:
	orr	r3, lr, r0
.L519:
	orr	r3, r3, r2
	strb	r3, [ip, #0]
	ldmfd	sp!, {ip}
	bx	ip
	.align	0
op_0x8b__FP16_z80_cpu_context:
	@ args = 0, pretend = 0, frame = 0
	@ frame_needed = 0, current_function_anonymous_args = 0
	stmfd	sp!, {lr}
	mov	ip, r0
	ldrb	r2, [ip, #1]	@ zero_extendqisi2
	ldrb	r3, [ip, #8]	@ zero_extendqisi2
	add	r2, r2, r3
	ldrb	r1, [ip, #0]
	and	r1, r1, #1
	add	r1, r1, r2
	ldrb	r2, [ip, #1]
	and	r2, r2, #136
	ldrb	r3, [ip, #8]
	and	r3, r3, #136
	mov	r3, r3, lsr #2
	orr	r3, r3, r2, lsr #3
	and	r2, r1, #136
	orr	r3, r3, r2, lsr #1
	strb	r1, [ip, #1]
	ldr	r0, .L527
	and	r2, r3, #7
	ldrb	lr, [r0, r2]	@ zero_extendqisi2
	ldr	r2, .L527+4
	ldrb	r0, [r2, r3, lsr #4]	@ zero_extendqisi2
	ldr	r2, .L527+8
	ldrb	r3, [ip, #1]	@ zero_extendqisi2
	ldrb	r2, [r2, r3]	@ zero_extendqisi2
	tst	r1, #256
	beq	.L523
	orr	r3, r0, #1
	orr	r3, lr, r3
	b	.L526
.L528:
	.align	0
.L527:
	.word	halfcarry_add_table
	.word	overflow_add_table
	.word	sz53_table
.L523:
	orr	r3, lr, r0
.L526:
	orr	r3, r3, r2
	strb	r3, [ip, #0]
	ldmfd	sp!, {ip}
	bx	ip
	.align	0
op_0x8c__FP16_z80_cpu_context:
	@ args = 0, pretend = 0, frame = 0
	@ frame_needed = 0, current_function_anonymous_args = 0
	stmfd	sp!, {lr}
	mov	ip, r0
	ldrb	r2, [ip, #1]	@ zero_extendqisi2
	ldrb	r3, [ip, #13]	@ zero_extendqisi2
	add	r2, r2, r3
	ldrb	r1, [ip, #0]
	and	r1, r1, #1
	add	r1, r1, r2
	ldrb	r2, [ip, #1]
	and	r2, r2, #136
	ldrb	r3, [ip, #13]
	and	r3, r3, #136
	mov	r3, r3, lsr #2
	orr	r3, r3, r2, lsr #3
	and	r2, r1, #136
	orr	r3, r3, r2, lsr #1
	strb	r1, [ip, #1]
	ldr	r0, .L534
	and	r2, r3, #7
	ldrb	lr, [r0, r2]	@ zero_extendqisi2
	ldr	r2, .L534+4
	ldrb	r0, [r2, r3, lsr #4]	@ zero_extendqisi2
	ldr	r2, .L534+8
	ldrb	r3, [ip, #1]	@ zero_extendqisi2
	ldrb	r2, [r2, r3]	@ zero_extendqisi2
	tst	r1, #256
	beq	.L530
	orr	r3, r0, #1
	orr	r3, lr, r3
	b	.L533
.L535:
	.align	0
.L534:
	.word	halfcarry_add_table
	.word	overflow_add_table
	.word	sz53_table
.L530:
	orr	r3, lr, r0
.L533:
	orr	r3, r3, r2
	strb	r3, [ip, #0]
	ldmfd	sp!, {ip}
	bx	ip
	.align	0
op_0x8d__FP16_z80_cpu_context:
	@ args = 0, pretend = 0, frame = 0
	@ frame_needed = 0, current_function_anonymous_args = 0
	stmfd	sp!, {lr}
	mov	ip, r0
	ldrb	r2, [ip, #1]	@ zero_extendqisi2
	ldrb	r3, [ip, #12]	@ zero_extendqisi2
	add	r2, r2, r3
	ldrb	r1, [ip, #0]
	and	r1, r1, #1
	add	r1, r1, r2
	ldrb	r2, [ip, #1]
	and	r2, r2, #136
	ldrb	r3, [ip, #12]
	and	r3, r3, #136
	mov	r3, r3, lsr #2
	orr	r3, r3, r2, lsr #3
	and	r2, r1, #136
	orr	r3, r3, r2, lsr #1
	strb	r1, [ip, #1]
	ldr	r0, .L541
	and	r2, r3, #7
	ldrb	lr, [r0, r2]	@ zero_extendqisi2
	ldr	r2, .L541+4
	ldrb	r0, [r2, r3, lsr #4]	@ zero_extendqisi2
	ldr	r2, .L541+8
	ldrb	r3, [ip, #1]	@ zero_extendqisi2
	ldrb	r2, [r2, r3]	@ zero_extendqisi2
	tst	r1, #256
	beq	.L537
	orr	r3, r0, #1
	orr	r3, lr, r3
	b	.L540
.L542:
	.align	0
.L541:
	.word	halfcarry_add_table
	.word	overflow_add_table
	.word	sz53_table
.L537:
	orr	r3, lr, r0
.L540:
	orr	r3, r3, r2
	strb	r3, [ip, #0]
	ldmfd	sp!, {ip}
	bx	ip
	.align	0
op_0x8e__FP16_z80_cpu_context:
	@ args = 0, pretend = 0, frame = 0
	@ frame_needed = 0, current_function_anonymous_args = 0
	stmfd	sp!, {r4, lr}
	mov	r4, r0
	ldrb	r3, [r4, #12]	@ zero_extendqisi2
	ldrb	r1, [r4, #13]	@ zero_extendqisi2
	orr	r1, r3, r1, asl #8
	mov	r2, #0
	ldr	r3, [r4, #120]
	ldr	ip, [r4, #116]
	mov	lr, pc
	bx	ip
	strb	r0, [r4, #148]
	ldrb	r2, [r4, #1]	@ zero_extendqisi2
	ldrb	r3, [r4, #148]	@ zero_extendqisi2
	add	r2, r2, r3
	ldrb	r1, [r4, #0]
	and	r1, r1, #1
	add	r1, r1, r2
	ldrb	r3, [r4, #1]
	and	r3, r3, #136
	and	r0, r0, #136
	mov	r0, r0, lsr #2
	orr	r0, r0, r3, lsr #3
	and	r3, r1, #136
	orr	r0, r0, r3, lsr #1
	strb	r1, [r4, #1]
	ldr	r2, .L548
	and	r3, r0, #7
	ldrb	ip, [r2, r3]	@ zero_extendqisi2
	ldr	r3, .L548+4
	ldrb	r0, [r3, r0, lsr #4]	@ zero_extendqisi2
	ldr	r2, .L548+8
	ldrb	r3, [r4, #1]	@ zero_extendqisi2
	ldrb	r2, [r2, r3]	@ zero_extendqisi2
	tst	r1, #256
	beq	.L544
	orr	r3, r0, #1
	orr	r3, ip, r3
	b	.L547
.L549:
	.align	0
.L548:
	.word	halfcarry_add_table
	.word	overflow_add_table
	.word	sz53_table
.L544:
	orr	r3, ip, r0
.L547:
	orr	r3, r3, r2
	strb	r3, [r4, #0]
	ldmfd	sp!, {r4, lr}
	bx	lr
	.align	0
op_0x8f__FP16_z80_cpu_context:
	@ args = 0, pretend = 0, frame = 0
	@ frame_needed = 0, current_function_anonymous_args = 0
	stmfd	sp!, {lr}
	mov	ip, r0
	ldrb	r1, [ip, #1]	@ zero_extendqisi2
	ldrb	r0, [ip, #0]
	and	r0, r0, #1
	ldrb	r3, [ip, #1]
	and	r3, r3, #136
	mov	r2, r3, lsr #2
	orr	r2, r2, r3, lsr #3
	orr	r0, r0, r1, asl #1
	and	r1, r1, #68
	orr	r1, r1, r2
	strb	r0, [ip, #1]
	ldr	r2, .L555
	and	r3, r1, #7
	ldrb	lr, [r2, r3]	@ zero_extendqisi2
	ldr	r3, .L555+4
	ldrb	r1, [r3, r1, lsr #4]	@ zero_extendqisi2
	ldr	r2, .L555+8
	ldrb	r3, [ip, #1]	@ zero_extendqisi2
	ldrb	r2, [r2, r3]	@ zero_extendqisi2
	tst	r0, #256
	beq	.L551
	orr	r3, r1, #1
	orr	r3, lr, r3
	b	.L554
.L556:
	.align	0
.L555:
	.word	halfcarry_add_table
	.word	overflow_add_table
	.word	sz53_table
.L551:
	orr	r3, lr, r1
.L554:
	orr	r3, r3, r2
	strb	r3, [ip, #0]
	ldmfd	sp!, {ip}
	bx	ip
	.align	0
op_0x90__FP16_z80_cpu_context:
	@ args = 0, pretend = 0, frame = 0
	@ frame_needed = 0, current_function_anonymous_args = 0
	stmfd	sp!, {lr}
	mov	ip, r0
	ldrb	r2, [ip, #1]	@ zero_extendqisi2
	ldrb	r3, [ip, #5]	@ zero_extendqisi2
	rsb	r2, r3, r2
	mov	r2, r2, asl #16
	ldrb	r1, [ip, #1]
	and	r1, r1, #136
	ldrb	r3, [ip, #5]
	and	r3, r3, #136
	mov	r3, r3, lsr #2
	orr	r3, r3, r1, lsr #3
	mov	r0, r2, lsr #16
	and	r2, r2, #8912896
	orr	r3, r3, r2, lsr #17
	strb	r0, [ip, #1]
	ldr	r1, .L562
	and	r2, r3, #7
	ldrb	lr, [r1, r2]	@ zero_extendqisi2
	ldr	r2, .L562+4
	ldrb	r1, [r2, r3, lsr #4]	@ zero_extendqisi2
	ldr	r2, .L562+8
	ldrb	r3, [ip, #1]	@ zero_extendqisi2
	ldrb	r2, [r2, r3]	@ zero_extendqisi2
	tst	r0, #256
	beq	.L558
	orr	r3, r1, #3
	b	.L561
.L563:
	.align	0
.L562:
	.word	halfcarry_sub_table
	.word	overflow_sub_table
	.word	sz53_table
.L558:
	orr	r3, r1, #2
.L561:
	orr	r3, lr, r3
	orr	r3, r3, r2
	strb	r3, [ip, #0]
	ldmfd	sp!, {ip}
	bx	ip
	.align	0
op_0x91__FP16_z80_cpu_context:
	@ args = 0, pretend = 0, frame = 0
	@ frame_needed = 0, current_function_anonymous_args = 0
	stmfd	sp!, {lr}
	mov	ip, r0
	ldrb	r2, [ip, #1]	@ zero_extendqisi2
	ldrb	r3, [ip, #4]	@ zero_extendqisi2
	rsb	r2, r3, r2
	mov	r2, r2, asl #16
	ldrb	r1, [ip, #1]
	and	r1, r1, #136
	ldrb	r3, [ip, #4]
	and	r3, r3, #136
	mov	r3, r3, lsr #2
	orr	r3, r3, r1, lsr #3
	mov	r0, r2, lsr #16
	and	r2, r2, #8912896
	orr	r3, r3, r2, lsr #17
	strb	r0, [ip, #1]
	ldr	r1, .L569
	and	r2, r3, #7
	ldrb	lr, [r1, r2]	@ zero_extendqisi2
	ldr	r2, .L569+4
	ldrb	r1, [r2, r3, lsr #4]	@ zero_extendqisi2
	ldr	r2, .L569+8
	ldrb	r3, [ip, #1]	@ zero_extendqisi2
	ldrb	r2, [r2, r3]	@ zero_extendqisi2
	tst	r0, #256
	beq	.L565
	orr	r3, r1, #3
	b	.L568
.L570:
	.align	0
.L569:
	.word	halfcarry_sub_table
	.word	overflow_sub_table
	.word	sz53_table
.L565:
	orr	r3, r1, #2
.L568:
	orr	r3, lr, r3
	orr	r3, r3, r2
	strb	r3, [ip, #0]
	ldmfd	sp!, {ip}
	bx	ip
	.align	0
op_0x92__FP16_z80_cpu_context:
	@ args = 0, pretend = 0, frame = 0
	@ frame_needed = 0, current_function_anonymous_args = 0
	stmfd	sp!, {lr}
	mov	ip, r0
	ldrb	r2, [ip, #1]	@ zero_extendqisi2
	ldrb	r3, [ip, #9]	@ zero_extendqisi2
	rsb	r2, r3, r2
	mov	r2, r2, asl #16
	ldrb	r1, [ip, #1]
	and	r1, r1, #136
	ldrb	r3, [ip, #9]
	and	r3, r3, #136
	mov	r3, r3, lsr #2
	orr	r3, r3, r1, lsr #3
	mov	r0, r2, lsr #16
	and	r2, r2, #8912896
	orr	r3, r3, r2, lsr #17
	strb	r0, [ip, #1]
	ldr	r1, .L576
	and	r2, r3, #7
	ldrb	lr, [r1, r2]	@ zero_extendqisi2
	ldr	r2, .L576+4
	ldrb	r1, [r2, r3, lsr #4]	@ zero_extendqisi2
	ldr	r2, .L576+8
	ldrb	r3, [ip, #1]	@ zero_extendqisi2
	ldrb	r2, [r2, r3]	@ zero_extendqisi2
	tst	r0, #256
	beq	.L572
	orr	r3, r1, #3
	b	.L575
.L577:
	.align	0
.L576:
	.word	halfcarry_sub_table
	.word	overflow_sub_table
	.word	sz53_table
.L572:
	orr	r3, r1, #2
.L575:
	orr	r3, lr, r3
	orr	r3, r3, r2
	strb	r3, [ip, #0]
	ldmfd	sp!, {ip}
	bx	ip
	.align	0
op_0x93__FP16_z80_cpu_context:
	@ args = 0, pretend = 0, frame = 0
	@ frame_needed = 0, current_function_anonymous_args = 0
	stmfd	sp!, {lr}
	mov	ip, r0
	ldrb	r2, [ip, #1]	@ zero_extendqisi2
	ldrb	r3, [ip, #8]	@ zero_extendqisi2
	rsb	r2, r3, r2
	mov	r2, r2, asl #16
	ldrb	r1, [ip, #1]
	and	r1, r1, #136
	ldrb	r3, [ip, #8]
	and	r3, r3, #136
	mov	r3, r3, lsr #2
	orr	r3, r3, r1, lsr #3
	mov	r0, r2, lsr #16
	and	r2, r2, #8912896
	orr	r3, r3, r2, lsr #17
	strb	r0, [ip, #1]
	ldr	r1, .L583
	and	r2, r3, #7
	ldrb	lr, [r1, r2]	@ zero_extendqisi2
	ldr	r2, .L583+4
	ldrb	r1, [r2, r3, lsr #4]	@ zero_extendqisi2
	ldr	r2, .L583+8
	ldrb	r3, [ip, #1]	@ zero_extendqisi2
	ldrb	r2, [r2, r3]	@ zero_extendqisi2
	tst	r0, #256
	beq	.L579
	orr	r3, r1, #3
	b	.L582
.L584:
	.align	0
.L583:
	.word	halfcarry_sub_table
	.word	overflow_sub_table
	.word	sz53_table
.L579:
	orr	r3, r1, #2
.L582:
	orr	r3, lr, r3
	orr	r3, r3, r2
	strb	r3, [ip, #0]
	ldmfd	sp!, {ip}
	bx	ip
	.align	0
op_0x94__FP16_z80_cpu_context:
	@ args = 0, pretend = 0, frame = 0
	@ frame_needed = 0, current_function_anonymous_args = 0
	stmfd	sp!, {lr}
	mov	ip, r0
	ldrb	r2, [ip, #1]	@ zero_extendqisi2
	ldrb	r3, [ip, #13]	@ zero_extendqisi2
	rsb	r2, r3, r2
	mov	r2, r2, asl #16
	ldrb	r1, [ip, #1]
	and	r1, r1, #136
	ldrb	r3, [ip, #13]
	and	r3, r3, #136
	mov	r3, r3, lsr #2
	orr	r3, r3, r1, lsr #3
	mov	r0, r2, lsr #16
	and	r2, r2, #8912896
	orr	r3, r3, r2, lsr #17
	strb	r0, [ip, #1]
	ldr	r1, .L590
	and	r2, r3, #7
	ldrb	lr, [r1, r2]	@ zero_extendqisi2
	ldr	r2, .L590+4
	ldrb	r1, [r2, r3, lsr #4]	@ zero_extendqisi2
	ldr	r2, .L590+8
	ldrb	r3, [ip, #1]	@ zero_extendqisi2
	ldrb	r2, [r2, r3]	@ zero_extendqisi2
	tst	r0, #256
	beq	.L586
	orr	r3, r1, #3
	b	.L589
.L591:
	.align	0
.L590:
	.word	halfcarry_sub_table
	.word	overflow_sub_table
	.word	sz53_table
.L586:
	orr	r3, r1, #2
.L589:
	orr	r3, lr, r3
	orr	r3, r3, r2
	strb	r3, [ip, #0]
	ldmfd	sp!, {ip}
	bx	ip
	.align	0
op_0x95__FP16_z80_cpu_context:
	@ args = 0, pretend = 0, frame = 0
	@ frame_needed = 0, current_function_anonymous_args = 0
	stmfd	sp!, {lr}
	mov	ip, r0
	ldrb	r2, [ip, #1]	@ zero_extendqisi2
	ldrb	r3, [ip, #12]	@ zero_extendqisi2
	rsb	r2, r3, r2
	mov	r2, r2, asl #16
	ldrb	r1, [ip, #1]
	and	r1, r1, #136
	ldrb	r3, [ip, #12]
	and	r3, r3, #136
	mov	r3, r3, lsr #2
	orr	r3, r3, r1, lsr #3
	mov	r0, r2, lsr #16
	and	r2, r2, #8912896
	orr	r3, r3, r2, lsr #17
	strb	r0, [ip, #1]
	ldr	r1, .L597
	and	r2, r3, #7
	ldrb	lr, [r1, r2]	@ zero_extendqisi2
	ldr	r2, .L597+4
	ldrb	r1, [r2, r3, lsr #4]	@ zero_extendqisi2
	ldr	r2, .L597+8
	ldrb	r3, [ip, #1]	@ zero_extendqisi2
	ldrb	r2, [r2, r3]	@ zero_extendqisi2
	tst	r0, #256
	beq	.L593
	orr	r3, r1, #3
	b	.L596
.L598:
	.align	0
.L597:
	.word	halfcarry_sub_table
	.word	overflow_sub_table
	.word	sz53_table
.L593:
	orr	r3, r1, #2
.L596:
	orr	r3, lr, r3
	orr	r3, r3, r2
	strb	r3, [ip, #0]
	ldmfd	sp!, {ip}
	bx	ip
	.align	0
op_0x96__FP16_z80_cpu_context:
	@ args = 0, pretend = 0, frame = 0
	@ frame_needed = 0, current_function_anonymous_args = 0
	stmfd	sp!, {r4, lr}
	mov	r4, r0
	ldrb	r3, [r4, #12]	@ zero_extendqisi2
	ldrb	r1, [r4, #13]	@ zero_extendqisi2
	orr	r1, r3, r1, asl #8
	mov	r2, #0
	ldr	r3, [r4, #120]
	ldr	ip, [r4, #116]
	mov	lr, pc
	bx	ip
	strb	r0, [r4, #148]
	ldrb	r3, [r4, #1]	@ zero_extendqisi2
	ldrb	r2, [r4, #148]	@ zero_extendqisi2
	rsb	r3, r2, r3
	mov	r3, r3, asl #16
	ldrb	r2, [r4, #1]
	and	r2, r2, #136
	and	r0, r0, #136
	mov	r0, r0, lsr #2
	orr	r0, r0, r2, lsr #3
	mov	r1, r3, lsr #16
	and	r3, r3, #8912896
	orr	r0, r0, r3, lsr #17
	strb	r1, [r4, #1]
	ldr	r2, .L604
	and	r3, r0, #7
	ldrb	ip, [r2, r3]	@ zero_extendqisi2
	ldr	r3, .L604+4
	ldrb	r0, [r3, r0, lsr #4]	@ zero_extendqisi2
	ldr	r2, .L604+8
	ldrb	r3, [r4, #1]	@ zero_extendqisi2
	ldrb	r2, [r2, r3]	@ zero_extendqisi2
	tst	r1, #256
	beq	.L600
	orr	r3, r0, #3
	b	.L603
.L605:
	.align	0
.L604:
	.word	halfcarry_sub_table
	.word	overflow_sub_table
	.word	sz53_table
.L600:
	orr	r3, r0, #2
.L603:
	orr	r3, ip, r3
	orr	r3, r3, r2
	strb	r3, [r4, #0]
	ldmfd	sp!, {r4, lr}
	bx	lr
	.align	0
op_0x97__FP16_z80_cpu_context:
	@ args = 0, pretend = 0, frame = 0
	@ frame_needed = 0, current_function_anonymous_args = 0
	mov	ip, #0
	ldrb	r3, [r0, #1]
	and	r3, r3, #136
	mov	r2, r3, lsr #2
	orr	r2, r2, r3, lsr #3
	strb	ip, [r0, #1]
	ldr	r1, .L610
	and	r3, r2, #7
	ldrb	r1, [r1, r3]	@ zero_extendqisi2
	ldr	r3, .L610+4
	ldrb	r3, [r3, r2, lsr #4]	@ zero_extendqisi2
	ldr	r2, .L610+8
	ldrb	r2, [r2, ip]	@ zero_extendqisi2
	orr	r3, r3, #2
	orr	r1, r1, r3
	orr	r1, r1, r2
	strb	r1, [r0, #0]
	bx	lr
.L611:
	.align	0
.L610:
	.word	halfcarry_sub_table
	.word	overflow_sub_table
	.word	sz53_table
	.align	0
op_0x98__FP16_z80_cpu_context:
	@ args = 0, pretend = 0, frame = 0
	@ frame_needed = 0, current_function_anonymous_args = 0
	stmfd	sp!, {lr}
	mov	ip, r0
	ldrb	r2, [ip, #1]	@ zero_extendqisi2
	ldrb	r3, [ip, #5]	@ zero_extendqisi2
	rsb	r2, r3, r2
	ldrb	r3, [ip, #0]
	and	r3, r3, #1
	rsb	r2, r3, r2
	mov	r2, r2, asl #16
	ldrb	r1, [ip, #1]
	and	r1, r1, #136
	ldrb	r3, [ip, #5]
	and	r3, r3, #136
	mov	r3, r3, lsr #2
	orr	r3, r3, r1, lsr #3
	mov	r0, r2, lsr #16
	and	r2, r2, #8912896
	orr	r3, r3, r2, lsr #17
	strb	r0, [ip, #1]
	ldr	r1, .L617
	and	r2, r3, #7
	ldrb	lr, [r1, r2]	@ zero_extendqisi2
	ldr	r2, .L617+4
	ldrb	r1, [r2, r3, lsr #4]	@ zero_extendqisi2
	ldr	r2, .L617+8
	ldrb	r3, [ip, #1]	@ zero_extendqisi2
	ldrb	r2, [r2, r3]	@ zero_extendqisi2
	tst	r0, #256
	beq	.L613
	orr	r3, r1, #3
	b	.L616
.L618:
	.align	0
.L617:
	.word	halfcarry_sub_table
	.word	overflow_sub_table
	.word	sz53_table
.L613:
	orr	r3, r1, #2
.L616:
	orr	r3, lr, r3
	orr	r3, r3, r2
	strb	r3, [ip, #0]
	ldmfd	sp!, {ip}
	bx	ip
	.align	0
op_0x99__FP16_z80_cpu_context:
	@ args = 0, pretend = 0, frame = 0
	@ frame_needed = 0, current_function_anonymous_args = 0
	stmfd	sp!, {lr}
	mov	ip, r0
	ldrb	r2, [ip, #1]	@ zero_extendqisi2
	ldrb	r3, [ip, #4]	@ zero_extendqisi2
	rsb	r2, r3, r2
	ldrb	r3, [ip, #0]
	and	r3, r3, #1
	rsb	r2, r3, r2
	mov	r2, r2, asl #16
	ldrb	r1, [ip, #1]
	and	r1, r1, #136
	ldrb	r3, [ip, #4]
	and	r3, r3, #136
	mov	r3, r3, lsr #2
	orr	r3, r3, r1, lsr #3
	mov	r0, r2, lsr #16
	and	r2, r2, #8912896
	orr	r3, r3, r2, lsr #17
	strb	r0, [ip, #1]
	ldr	r1, .L624
	and	r2, r3, #7
	ldrb	lr, [r1, r2]	@ zero_extendqisi2
	ldr	r2, .L624+4
	ldrb	r1, [r2, r3, lsr #4]	@ zero_extendqisi2
	ldr	r2, .L624+8
	ldrb	r3, [ip, #1]	@ zero_extendqisi2
	ldrb	r2, [r2, r3]	@ zero_extendqisi2
	tst	r0, #256
	beq	.L620
	orr	r3, r1, #3
	b	.L623
.L625:
	.align	0
.L624:
	.word	halfcarry_sub_table
	.word	overflow_sub_table
	.word	sz53_table
.L620:
	orr	r3, r1, #2
.L623:
	orr	r3, lr, r3
	orr	r3, r3, r2
	strb	r3, [ip, #0]
	ldmfd	sp!, {ip}
	bx	ip
	.align	0
op_0x9a__FP16_z80_cpu_context:
	@ args = 0, pretend = 0, frame = 0
	@ frame_needed = 0, current_function_anonymous_args = 0
	stmfd	sp!, {lr}
	mov	ip, r0
	ldrb	r2, [ip, #1]	@ zero_extendqisi2
	ldrb	r3, [ip, #9]	@ zero_extendqisi2
	rsb	r2, r3, r2
	ldrb	r3, [ip, #0]
	and	r3, r3, #1
	rsb	r2, r3, r2
	mov	r2, r2, asl #16
	ldrb	r1, [ip, #1]
	and	r1, r1, #136
	ldrb	r3, [ip, #9]
	and	r3, r3, #136
	mov	r3, r3, lsr #2
	orr	r3, r3, r1, lsr #3
	mov	r0, r2, lsr #16
	and	r2, r2, #8912896
	orr	r3, r3, r2, lsr #17
	strb	r0, [ip, #1]
	ldr	r1, .L631
	and	r2, r3, #7
	ldrb	lr, [r1, r2]	@ zero_extendqisi2
	ldr	r2, .L631+4
	ldrb	r1, [r2, r3, lsr #4]	@ zero_extendqisi2
	ldr	r2, .L631+8
	ldrb	r3, [ip, #1]	@ zero_extendqisi2
	ldrb	r2, [r2, r3]	@ zero_extendqisi2
	tst	r0, #256
	beq	.L627
	orr	r3, r1, #3
	b	.L630
.L632:
	.align	0
.L631:
	.word	halfcarry_sub_table
	.word	overflow_sub_table
	.word	sz53_table
.L627:
	orr	r3, r1, #2
.L630:
	orr	r3, lr, r3
	orr	r3, r3, r2
	strb	r3, [ip, #0]
	ldmfd	sp!, {ip}
	bx	ip
	.align	0
op_0x9b__FP16_z80_cpu_context:
	@ args = 0, pretend = 0, frame = 0
	@ frame_needed = 0, current_function_anonymous_args = 0
	stmfd	sp!, {lr}
	mov	ip, r0
	ldrb	r2, [ip, #1]	@ zero_extendqisi2
	ldrb	r3, [ip, #8]	@ zero_extendqisi2
	rsb	r2, r3, r2
	ldrb	r3, [ip, #0]
	and	r3, r3, #1
	rsb	r2, r3, r2
	mov	r2, r2, asl #16
	ldrb	r1, [ip, #1]
	and	r1, r1, #136
	ldrb	r3, [ip, #8]
	and	r3, r3, #136
	mov	r3, r3, lsr #2
	orr	r3, r3, r1, lsr #3
	mov	r0, r2, lsr #16
	and	r2, r2, #8912896
	orr	r3, r3, r2, lsr #17
	strb	r0, [ip, #1]
	ldr	r1, .L638
	and	r2, r3, #7
	ldrb	lr, [r1, r2]	@ zero_extendqisi2
	ldr	r2, .L638+4
	ldrb	r1, [r2, r3, lsr #4]	@ zero_extendqisi2
	ldr	r2, .L638+8
	ldrb	r3, [ip, #1]	@ zero_extendqisi2
	ldrb	r2, [r2, r3]	@ zero_extendqisi2
	tst	r0, #256
	beq	.L634
	orr	r3, r1, #3
	b	.L637
.L639:
	.align	0
.L638:
	.word	halfcarry_sub_table
	.word	overflow_sub_table
	.word	sz53_table
.L634:
	orr	r3, r1, #2
.L637:
	orr	r3, lr, r3
	orr	r3, r3, r2
	strb	r3, [ip, #0]
	ldmfd	sp!, {ip}
	bx	ip
	.align	0
op_0x9c__FP16_z80_cpu_context:
	@ args = 0, pretend = 0, frame = 0
	@ frame_needed = 0, current_function_anonymous_args = 0
	stmfd	sp!, {lr}
	mov	ip, r0
	ldrb	r2, [ip, #1]	@ zero_extendqisi2
	ldrb	r3, [ip, #13]	@ zero_extendqisi2
	rsb	r2, r3, r2
	ldrb	r3, [ip, #0]
	and	r3, r3, #1
	rsb	r2, r3, r2
	mov	r2, r2, asl #16
	ldrb	r1, [ip, #1]
	and	r1, r1, #136
	ldrb	r3, [ip, #13]
	and	r3, r3, #136
	mov	r3, r3, lsr #2
	orr	r3, r3, r1, lsr #3
	mov	r0, r2, lsr #16
	and	r2, r2, #8912896
	orr	r3, r3, r2, lsr #17
	strb	r0, [ip, #1]
	ldr	r1, .L645
	and	r2, r3, #7
	ldrb	lr, [r1, r2]	@ zero_extendqisi2
	ldr	r2, .L645+4
	ldrb	r1, [r2, r3, lsr #4]	@ zero_extendqisi2
	ldr	r2, .L645+8
	ldrb	r3, [ip, #1]	@ zero_extendqisi2
	ldrb	r2, [r2, r3]	@ zero_extendqisi2
	tst	r0, #256
	beq	.L641
	orr	r3, r1, #3
	b	.L644
.L646:
	.align	0
.L645:
	.word	halfcarry_sub_table
	.word	overflow_sub_table
	.word	sz53_table
.L641:
	orr	r3, r1, #2
.L644:
	orr	r3, lr, r3
	orr	r3, r3, r2
	strb	r3, [ip, #0]
	ldmfd	sp!, {ip}
	bx	ip
	.align	0
op_0x9d__FP16_z80_cpu_context:
	@ args = 0, pretend = 0, frame = 0
	@ frame_needed = 0, current_function_anonymous_args = 0
	stmfd	sp!, {lr}
	mov	ip, r0
	ldrb	r2, [ip, #1]	@ zero_extendqisi2
	ldrb	r3, [ip, #12]	@ zero_extendqisi2
	rsb	r2, r3, r2
	ldrb	r3, [ip, #0]
	and	r3, r3, #1
	rsb	r2, r3, r2
	mov	r2, r2, asl #16
	ldrb	r1, [ip, #1]
	and	r1, r1, #136
	ldrb	r3, [ip, #12]
	and	r3, r3, #136
	mov	r3, r3, lsr #2
	orr	r3, r3, r1, lsr #3
	mov	r0, r2, lsr #16
	and	r2, r2, #8912896
	orr	r3, r3, r2, lsr #17
	strb	r0, [ip, #1]
	ldr	r1, .L652
	and	r2, r3, #7
	ldrb	lr, [r1, r2]	@ zero_extendqisi2
	ldr	r2, .L652+4
	ldrb	r1, [r2, r3, lsr #4]	@ zero_extendqisi2
	ldr	r2, .L652+8
	ldrb	r3, [ip, #1]	@ zero_extendqisi2
	ldrb	r2, [r2, r3]	@ zero_extendqisi2
	tst	r0, #256
	beq	.L648
	orr	r3, r1, #3
	b	.L651
.L653:
	.align	0
.L652:
	.word	halfcarry_sub_table
	.word	overflow_sub_table
	.word	sz53_table
.L648:
	orr	r3, r1, #2
.L651:
	orr	r3, lr, r3
	orr	r3, r3, r2
	strb	r3, [ip, #0]
	ldmfd	sp!, {ip}
	bx	ip
	.align	0
op_0x9e__FP16_z80_cpu_context:
	@ args = 0, pretend = 0, frame = 0
	@ frame_needed = 0, current_function_anonymous_args = 0
	stmfd	sp!, {r4, lr}
	mov	r4, r0
	ldrb	r3, [r4, #12]	@ zero_extendqisi2
	ldrb	r1, [r4, #13]	@ zero_extendqisi2
	orr	r1, r3, r1, asl #8
	mov	r2, #0
	ldr	r3, [r4, #120]
	ldr	ip, [r4, #116]
	mov	lr, pc
	bx	ip
	strb	r0, [r4, #148]
	ldrb	r2, [r4, #1]	@ zero_extendqisi2
	ldrb	r3, [r4, #148]	@ zero_extendqisi2
	rsb	r2, r3, r2
	ldrb	r3, [r4, #0]
	and	r3, r3, #1
	rsb	r2, r3, r2
	mov	r2, r2, asl #16
	ldrb	r3, [r4, #1]
	and	r3, r3, #136
	and	r0, r0, #136
	mov	r0, r0, lsr #2
	orr	r0, r0, r3, lsr #3
	mov	r1, r2, lsr #16
	and	r2, r2, #8912896
	orr	r0, r0, r2, lsr #17
	strb	r1, [r4, #1]
	ldr	r2, .L659
	and	r3, r0, #7
	ldrb	ip, [r2, r3]	@ zero_extendqisi2
	ldr	r3, .L659+4
	ldrb	r0, [r3, r0, lsr #4]	@ zero_extendqisi2
	ldr	r2, .L659+8
	ldrb	r3, [r4, #1]	@ zero_extendqisi2
	ldrb	r2, [r2, r3]	@ zero_extendqisi2
	tst	r1, #256
	beq	.L655
	orr	r3, r0, #3
	b	.L658
.L660:
	.align	0
.L659:
	.word	halfcarry_sub_table
	.word	overflow_sub_table
	.word	sz53_table
.L655:
	orr	r3, r0, #2
.L658:
	orr	r3, ip, r3
	orr	r3, r3, r2
	strb	r3, [r4, #0]
	ldmfd	sp!, {r4, lr}
	bx	lr
	.align	0
op_0x9f__FP16_z80_cpu_context:
	@ args = 0, pretend = 0, frame = 0
	@ frame_needed = 0, current_function_anonymous_args = 0
	stmfd	sp!, {lr}
	mov	ip, r0
	ldrb	r2, [ip, #0]
	and	r2, r2, #1
	rsb	r2, r2, #0
	mov	r2, r2, asl #16
	ldrb	r3, [ip, #1]
	and	r3, r3, #136
	mov	r1, r3, lsr #2
	orr	r1, r1, r3, lsr #3
	mov	r0, r2, lsr #16
	and	r2, r2, #8912896
	orr	r1, r1, r2, lsr #17
	strb	r0, [ip, #1]
	ldr	r2, .L666
	and	r3, r1, #7
	ldrb	lr, [r2, r3]	@ zero_extendqisi2
	ldr	r3, .L666+4
	ldrb	r1, [r3, r1, lsr #4]	@ zero_extendqisi2
	ldr	r2, .L666+8
	ldrb	r3, [ip, #1]	@ zero_extendqisi2
	ldrb	r2, [r2, r3]	@ zero_extendqisi2
	tst	r0, #256
	beq	.L662
	orr	r3, r1, #3
	b	.L665
.L667:
	.align	0
.L666:
	.word	halfcarry_sub_table
	.word	overflow_sub_table
	.word	sz53_table
.L662:
	orr	r3, r1, #2
.L665:
	orr	r3, lr, r3
	orr	r3, r3, r2
	strb	r3, [ip, #0]
	ldmfd	sp!, {ip}
	bx	ip
	.align	0
op_0xa0__FP16_z80_cpu_context:
	@ args = 0, pretend = 0, frame = 0
	@ frame_needed = 0, current_function_anonymous_args = 0
	ldrb	r3, [r0, #1]
	ldrb	r2, [r0, #5]
	and	r3, r3, r2
	strb	r3, [r0, #1]
	ldr	r2, .L670
	ldrb	r3, [r0, #1]	@ zero_extendqisi2
	ldrb	r3, [r2, r3]
	orr	r3, r3, #16
	strb	r3, [r0, #0]
	bx	lr
.L671:
	.align	0
.L670:
	.word	sz53p_table
	.align	0
op_0xa1__FP16_z80_cpu_context:
	@ args = 0, pretend = 0, frame = 0
	@ frame_needed = 0, current_function_anonymous_args = 0
	ldrb	r3, [r0, #1]
	ldrb	r2, [r0, #4]
	and	r3, r3, r2
	strb	r3, [r0, #1]
	ldr	r2, .L674
	ldrb	r3, [r0, #1]	@ zero_extendqisi2
	ldrb	r3, [r2, r3]
	orr	r3, r3, #16
	strb	r3, [r0, #0]
	bx	lr
.L675:
	.align	0
.L674:
	.word	sz53p_table
	.align	0
op_0xa2__FP16_z80_cpu_context:
	@ args = 0, pretend = 0, frame = 0
	@ frame_needed = 0, current_function_anonymous_args = 0
	ldrb	r3, [r0, #1]
	ldrb	r2, [r0, #9]
	and	r3, r3, r2
	strb	r3, [r0, #1]
	ldr	r2, .L678
	ldrb	r3, [r0, #1]	@ zero_extendqisi2
	ldrb	r3, [r2, r3]
	orr	r3, r3, #16
	strb	r3, [r0, #0]
	bx	lr
.L679:
	.align	0
.L678:
	.word	sz53p_table
	.align	0
op_0xa3__FP16_z80_cpu_context:
	@ args = 0, pretend = 0, frame = 0
	@ frame_needed = 0, current_function_anonymous_args = 0
	ldrb	r3, [r0, #1]
	ldrb	r2, [r0, #8]
	and	r3, r3, r2
	strb	r3, [r0, #1]
	ldr	r2, .L682
	ldrb	r3, [r0, #1]	@ zero_extendqisi2
	ldrb	r3, [r2, r3]
	orr	r3, r3, #16
	strb	r3, [r0, #0]
	bx	lr
.L683:
	.align	0
.L682:
	.word	sz53p_table
	.align	0
op_0xa4__FP16_z80_cpu_context:
	@ args = 0, pretend = 0, frame = 0
	@ frame_needed = 0, current_function_anonymous_args = 0
	ldrb	r3, [r0, #1]
	ldrb	r2, [r0, #13]
	and	r3, r3, r2
	strb	r3, [r0, #1]
	ldr	r2, .L686
	ldrb	r3, [r0, #1]	@ zero_extendqisi2
	ldrb	r3, [r2, r3]
	orr	r3, r3, #16
	strb	r3, [r0, #0]
	bx	lr
.L687:
	.align	0
.L686:
	.word	sz53p_table
	.align	0
op_0xa5__FP16_z80_cpu_context:
	@ args = 0, pretend = 0, frame = 0
	@ frame_needed = 0, current_function_anonymous_args = 0
	ldrb	r3, [r0, #1]
	ldrb	r2, [r0, #12]
	and	r3, r3, r2
	strb	r3, [r0, #1]
	ldr	r2, .L690
	ldrb	r3, [r0, #1]	@ zero_extendqisi2
	ldrb	r3, [r2, r3]
	orr	r3, r3, #16
	strb	r3, [r0, #0]
	bx	lr
.L691:
	.align	0
.L690:
	.word	sz53p_table
	.align	0
op_0xa6__FP16_z80_cpu_context:
	@ args = 0, pretend = 0, frame = 0
	@ frame_needed = 0, current_function_anonymous_args = 0
	stmfd	sp!, {r4, lr}
	mov	r4, r0
	ldrb	r3, [r4, #12]	@ zero_extendqisi2
	ldrb	r1, [r4, #13]	@ zero_extendqisi2
	orr	r1, r3, r1, asl #8
	mov	r2, #0
	ldr	r3, [r4, #120]
	ldr	ip, [r4, #116]
	mov	lr, pc
	bx	ip
	strb	r0, [r4, #148]
	ldrb	r3, [r4, #1]
	and	r3, r3, r0
	strb	r3, [r4, #1]
	ldr	r2, .L695
	ldrb	r3, [r4, #1]	@ zero_extendqisi2
	ldrb	r3, [r2, r3]
	orr	r3, r3, #16
	strb	r3, [r4, #0]
	b	.L694
.L696:
	.align	0
.L695:
	.word	sz53p_table
.L694:
	ldmfd	sp!, {r4, lr}
	bx	lr
	.align	0
op_0xa7__FP16_z80_cpu_context:
	@ args = 0, pretend = 0, frame = 0
	@ frame_needed = 0, current_function_anonymous_args = 0
	ldrb	r3, [r0, #1]
	and	r3, r3, r3
	strb	r3, [r0, #1]
	ldr	r2, .L699
	ldrb	r3, [r0, #1]	@ zero_extendqisi2
	ldrb	r3, [r2, r3]
	orr	r3, r3, #16
	strb	r3, [r0, #0]
	bx	lr
.L700:
	.align	0
.L699:
	.word	sz53p_table
	.align	0
op_0xa8__FP16_z80_cpu_context:
	@ args = 0, pretend = 0, frame = 0
	@ frame_needed = 0, current_function_anonymous_args = 0
	ldrb	r3, [r0, #1]
	ldrb	r2, [r0, #5]
	eor	r3, r3, r2
	strb	r3, [r0, #1]
	ldr	r2, .L703
	ldrb	r3, [r0, #1]	@ zero_extendqisi2
	ldrb	r3, [r2, r3]
	strb	r3, [r0, #0]
	bx	lr
.L704:
	.align	0
.L703:
	.word	sz53p_table
	.align	0
op_0xa9__FP16_z80_cpu_context:
	@ args = 0, pretend = 0, frame = 0
	@ frame_needed = 0, current_function_anonymous_args = 0
	ldrb	r3, [r0, #1]
	ldrb	r2, [r0, #4]
	eor	r3, r3, r2
	strb	r3, [r0, #1]
	ldr	r2, .L707
	ldrb	r3, [r0, #1]	@ zero_extendqisi2
	ldrb	r3, [r2, r3]
	strb	r3, [r0, #0]
	bx	lr
.L708:
	.align	0
.L707:
	.word	sz53p_table
	.align	0
op_0xaa__FP16_z80_cpu_context:
	@ args = 0, pretend = 0, frame = 0
	@ frame_needed = 0, current_function_anonymous_args = 0
	ldrb	r3, [r0, #1]
	ldrb	r2, [r0, #9]
	eor	r3, r3, r2
	strb	r3, [r0, #1]
	ldr	r2, .L711
	ldrb	r3, [r0, #1]	@ zero_extendqisi2
	ldrb	r3, [r2, r3]
	strb	r3, [r0, #0]
	bx	lr
.L712:
	.align	0
.L711:
	.word	sz53p_table
	.align	0
op_0xab__FP16_z80_cpu_context:
	@ args = 0, pretend = 0, frame = 0
	@ frame_needed = 0, current_function_anonymous_args = 0
	ldrb	r3, [r0, #1]
	ldrb	r2, [r0, #8]
	eor	r3, r3, r2
	strb	r3, [r0, #1]
	ldr	r2, .L715
	ldrb	r3, [r0, #1]	@ zero_extendqisi2
	ldrb	r3, [r2, r3]
	strb	r3, [r0, #0]
	bx	lr
.L716:
	.align	0
.L715:
	.word	sz53p_table
	.align	0
op_0xac__FP16_z80_cpu_context:
	@ args = 0, pretend = 0, frame = 0
	@ frame_needed = 0, current_function_anonymous_args = 0
	ldrb	r3, [r0, #1]
	ldrb	r2, [r0, #13]
	eor	r3, r3, r2
	strb	r3, [r0, #1]
	ldr	r2, .L719
	ldrb	r3, [r0, #1]	@ zero_extendqisi2
	ldrb	r3, [r2, r3]
	strb	r3, [r0, #0]
	bx	lr
.L720:
	.align	0
.L719:
	.word	sz53p_table
	.align	0
op_0xad__FP16_z80_cpu_context:
	@ args = 0, pretend = 0, frame = 0
	@ frame_needed = 0, current_function_anonymous_args = 0
	ldrb	r3, [r0, #1]
	ldrb	r2, [r0, #12]
	eor	r3, r3, r2
	strb	r3, [r0, #1]
	ldr	r2, .L723
	ldrb	r3, [r0, #1]	@ zero_extendqisi2
	ldrb	r3, [r2, r3]
	strb	r3, [r0, #0]
	bx	lr
.L724:
	.align	0
.L723:
	.word	sz53p_table
	.align	0
op_0xae__FP16_z80_cpu_context:
	@ args = 0, pretend = 0, frame = 0
	@ frame_needed = 0, current_function_anonymous_args = 0
	stmfd	sp!, {r4, lr}
	mov	r4, r0
	ldrb	r3, [r4, #12]	@ zero_extendqisi2
	ldrb	r1, [r4, #13]	@ zero_extendqisi2
	orr	r1, r3, r1, asl #8
	mov	r2, #0
	ldr	r3, [r4, #120]
	ldr	ip, [r4, #116]
	mov	lr, pc
	bx	ip
	strb	r0, [r4, #148]
	ldrb	r3, [r4, #1]
	eor	r3, r3, r0
	strb	r3, [r4, #1]
	ldr	r2, .L728
	ldrb	r3, [r4, #1]	@ zero_extendqisi2
	ldrb	r3, [r2, r3]
	strb	r3, [r4, #0]
	b	.L727
.L729:
	.align	0
.L728:
	.word	sz53p_table
.L727:
	ldmfd	sp!, {r4, lr}
	bx	lr
	.align	0
op_0xaf__FP16_z80_cpu_context:
	@ args = 0, pretend = 0, frame = 0
	@ frame_needed = 0, current_function_anonymous_args = 0
	ldrb	r3, [r0, #1]
	eor	r3, r3, r3
	strb	r3, [r0, #1]
	ldr	r2, .L732
	ldrb	r3, [r0, #1]	@ zero_extendqisi2
	ldrb	r3, [r2, r3]
	strb	r3, [r0, #0]
	bx	lr
.L733:
	.align	0
.L732:
	.word	sz53p_table
	.align	0
op_0xb0__FP16_z80_cpu_context:
	@ args = 0, pretend = 0, frame = 0
	@ frame_needed = 0, current_function_anonymous_args = 0
	ldrb	r3, [r0, #1]
	ldrb	r2, [r0, #5]
	orr	r3, r3, r2
	strb	r3, [r0, #1]
	ldr	r2, .L736
	ldrb	r3, [r0, #1]	@ zero_extendqisi2
	ldrb	r3, [r2, r3]
	strb	r3, [r0, #0]
	bx	lr
.L737:
	.align	0
.L736:
	.word	sz53p_table
	.align	0
op_0xb1__FP16_z80_cpu_context:
	@ args = 0, pretend = 0, frame = 0
	@ frame_needed = 0, current_function_anonymous_args = 0
	ldrb	r3, [r0, #1]
	ldrb	r2, [r0, #4]
	orr	r3, r3, r2
	strb	r3, [r0, #1]
	ldr	r2, .L740
	ldrb	r3, [r0, #1]	@ zero_extendqisi2
	ldrb	r3, [r2, r3]
	strb	r3, [r0, #0]
	bx	lr
.L741:
	.align	0
.L740:
	.word	sz53p_table
	.align	0
op_0xb2__FP16_z80_cpu_context:
	@ args = 0, pretend = 0, frame = 0
	@ frame_needed = 0, current_function_anonymous_args = 0
	ldrb	r3, [r0, #1]
	ldrb	r2, [r0, #9]
	orr	r3, r3, r2
	strb	r3, [r0, #1]
	ldr	r2, .L744
	ldrb	r3, [r0, #1]	@ zero_extendqisi2
	ldrb	r3, [r2, r3]
	strb	r3, [r0, #0]
	bx	lr
.L745:
	.align	0
.L744:
	.word	sz53p_table
	.align	0
op_0xb3__FP16_z80_cpu_context:
	@ args = 0, pretend = 0, frame = 0
	@ frame_needed = 0, current_function_anonymous_args = 0
	ldrb	r3, [r0, #1]
	ldrb	r2, [r0, #8]
	orr	r3, r3, r2
	strb	r3, [r0, #1]
	ldr	r2, .L748
	ldrb	r3, [r0, #1]	@ zero_extendqisi2
	ldrb	r3, [r2, r3]
	strb	r3, [r0, #0]
	bx	lr
.L749:
	.align	0
.L748:
	.word	sz53p_table
	.align	0
op_0xb4__FP16_z80_cpu_context:
	@ args = 0, pretend = 0, frame = 0
	@ frame_needed = 0, current_function_anonymous_args = 0
	ldrb	r3, [r0, #1]
	ldrb	r2, [r0, #13]
	orr	r3, r3, r2
	strb	r3, [r0, #1]
	ldr	r2, .L752
	ldrb	r3, [r0, #1]	@ zero_extendqisi2
	ldrb	r3, [r2, r3]
	strb	r3, [r0, #0]
	bx	lr
.L753:
	.align	0
.L752:
	.word	sz53p_table
	.align	0
op_0xb5__FP16_z80_cpu_context:
	@ args = 0, pretend = 0, frame = 0
	@ frame_needed = 0, current_function_anonymous_args = 0
	ldrb	r3, [r0, #1]
	ldrb	r2, [r0, #12]
	orr	r3, r3, r2
	strb	r3, [r0, #1]
	ldr	r2, .L756
	ldrb	r3, [r0, #1]	@ zero_extendqisi2
	ldrb	r3, [r2, r3]
	strb	r3, [r0, #0]
	bx	lr
.L757:
	.align	0
.L756:
	.word	sz53p_table
	.align	0
op_0xb6__FP16_z80_cpu_context:
	@ args = 0, pretend = 0, frame = 0
	@ frame_needed = 0, current_function_anonymous_args = 0
	stmfd	sp!, {r4, lr}
	mov	r4, r0
	ldrb	r3, [r4, #12]	@ zero_extendqisi2
	ldrb	r1, [r4, #13]	@ zero_extendqisi2
	orr	r1, r3, r1, asl #8
	mov	r2, #0
	ldr	r3, [r4, #120]
	ldr	ip, [r4, #116]
	mov	lr, pc
	bx	ip
	strb	r0, [r4, #148]
	ldrb	r3, [r4, #1]
	orr	r3, r3, r0
	strb	r3, [r4, #1]
	ldr	r2, .L761
	ldrb	r3, [r4, #1]	@ zero_extendqisi2
	ldrb	r3, [r2, r3]
	strb	r3, [r4, #0]
	b	.L760
.L762:
	.align	0
.L761:
	.word	sz53p_table
.L760:
	ldmfd	sp!, {r4, lr}
	bx	lr
	.align	0
op_0xb7__FP16_z80_cpu_context:
	@ args = 0, pretend = 0, frame = 0
	@ frame_needed = 0, current_function_anonymous_args = 0
	ldrb	r3, [r0, #1]	@ zero_extendqisi2
	strb	r3, [r0, #1]
	ldr	r2, .L765
	ldrb	r3, [r0, #1]	@ zero_extendqisi2
	ldrb	r3, [r2, r3]
	strb	r3, [r0, #0]
	bx	lr
.L766:
	.align	0
.L765:
	.word	sz53p_table
	.align	0
op_0xb8__FP16_z80_cpu_context:
	@ args = 0, pretend = 0, frame = 0
	@ frame_needed = 0, current_function_anonymous_args = 0
	stmfd	sp!, {r4, lr}
	mov	r4, r0
	ldrb	r1, [r4, #1]	@ zero_extendqisi2
	ldrb	r3, [r4, #5]	@ zero_extendqisi2
	rsb	r1, r3, r1
	mov	r1, r1, asl #16
	ldrb	r2, [r4, #1]
	and	r2, r2, #136
	ldrb	ip, [r4, #5]
	and	r3, ip, #136
	mov	r3, r3, lsr #2
	orr	r3, r3, r2, lsr #3
	and	r2, r1, #8912896
	orr	r3, r3, r2, lsr #17
	ldr	r0, .L774
	and	r2, r3, #7
	ldrb	lr, [r0, r2]	@ zero_extendqisi2
	ldr	r2, .L774+4
	ldrb	r2, [r2, r3, lsr #4]	@ zero_extendqisi2
	and	ip, ip, #40
	and	r3, r1, #8388608
	mov	r0, r3, lsr #16
	mov	r3, r1, lsr #16
	tst	r1, #16777216
	bne	.L768
	cmp	r3, #0
	bne	.L770
	orr	r3, r2, #66
	b	.L773
.L775:
	.align	0
.L774:
	.word	halfcarry_sub_table
	.word	overflow_sub_table
.L770:
	orr	r3, r2, #2
	b	.L773
.L768:
	orr	r3, r2, #3
.L773:
	orr	r3, lr, r3
	orr	r3, r3, ip
	orr	r3, r3, r0
	strb	r3, [r4, #0]
	ldmfd	sp!, {r4, lr}
	bx	lr
	.align	0
op_0xb9__FP16_z80_cpu_context:
	@ args = 0, pretend = 0, frame = 0
	@ frame_needed = 0, current_function_anonymous_args = 0
	stmfd	sp!, {r4, lr}
	mov	r4, r0
	ldrb	r1, [r4, #1]	@ zero_extendqisi2
	ldrb	r3, [r4, #4]	@ zero_extendqisi2
	rsb	r1, r3, r1
	mov	r1, r1, asl #16
	ldrb	r2, [r4, #1]
	and	r2, r2, #136
	ldrb	ip, [r4, #4]
	and	r3, ip, #136
	mov	r3, r3, lsr #2
	orr	r3, r3, r2, lsr #3
	and	r2, r1, #8912896
	orr	r3, r3, r2, lsr #17
	ldr	r0, .L783
	and	r2, r3, #7
	ldrb	lr, [r0, r2]	@ zero_extendqisi2
	ldr	r2, .L783+4
	ldrb	r2, [r2, r3, lsr #4]	@ zero_extendqisi2
	and	ip, ip, #40
	and	r3, r1, #8388608
	mov	r0, r3, lsr #16
	mov	r3, r1, lsr #16
	tst	r1, #16777216
	bne	.L777
	cmp	r3, #0
	bne	.L779
	orr	r3, r2, #66
	b	.L782
.L784:
	.align	0
.L783:
	.word	halfcarry_sub_table
	.word	overflow_sub_table
.L779:
	orr	r3, r2, #2
	b	.L782
.L777:
	orr	r3, r2, #3
.L782:
	orr	r3, lr, r3
	orr	r3, r3, ip
	orr	r3, r3, r0
	strb	r3, [r4, #0]
	ldmfd	sp!, {r4, lr}
	bx	lr
	.align	0
op_0xba__FP16_z80_cpu_context:
	@ args = 0, pretend = 0, frame = 0
	@ frame_needed = 0, current_function_anonymous_args = 0
	stmfd	sp!, {r4, lr}
	mov	r4, r0
	ldrb	r1, [r4, #1]	@ zero_extendqisi2
	ldrb	r3, [r4, #9]	@ zero_extendqisi2
	rsb	r1, r3, r1
	mov	r1, r1, asl #16
	ldrb	r2, [r4, #1]
	and	r2, r2, #136
	ldrb	ip, [r4, #9]
	and	r3, ip, #136
	mov	r3, r3, lsr #2
	orr	r3, r3, r2, lsr #3
	and	r2, r1, #8912896
	orr	r3, r3, r2, lsr #17
	ldr	r0, .L792
	and	r2, r3, #7
	ldrb	lr, [r0, r2]	@ zero_extendqisi2
	ldr	r2, .L792+4
	ldrb	r2, [r2, r3, lsr #4]	@ zero_extendqisi2
	and	ip, ip, #40
	and	r3, r1, #8388608
	mov	r0, r3, lsr #16
	mov	r3, r1, lsr #16
	tst	r1, #16777216
	bne	.L786
	cmp	r3, #0
	bne	.L788
	orr	r3, r2, #66
	b	.L791
.L793:
	.align	0
.L792:
	.word	halfcarry_sub_table
	.word	overflow_sub_table
.L788:
	orr	r3, r2, #2
	b	.L791
.L786:
	orr	r3, r2, #3
.L791:
	orr	r3, lr, r3
	orr	r3, r3, ip
	orr	r3, r3, r0
	strb	r3, [r4, #0]
	ldmfd	sp!, {r4, lr}
	bx	lr
	.align	0
op_0xbb__FP16_z80_cpu_context:
	@ args = 0, pretend = 0, frame = 0
	@ frame_needed = 0, current_function_anonymous_args = 0
	stmfd	sp!, {r4, lr}
	mov	r4, r0
	ldrb	r1, [r4, #1]	@ zero_extendqisi2
	ldrb	r3, [r4, #8]	@ zero_extendqisi2
	rsb	r1, r3, r1
	mov	r1, r1, asl #16
	ldrb	r2, [r4, #1]
	and	r2, r2, #136
	ldrb	ip, [r4, #8]
	and	r3, ip, #136
	mov	r3, r3, lsr #2
	orr	r3, r3, r2, lsr #3
	and	r2, r1, #8912896
	orr	r3, r3, r2, lsr #17
	ldr	r0, .L801
	and	r2, r3, #7
	ldrb	lr, [r0, r2]	@ zero_extendqisi2
	ldr	r2, .L801+4
	ldrb	r2, [r2, r3, lsr #4]	@ zero_extendqisi2
	and	ip, ip, #40
	and	r3, r1, #8388608
	mov	r0, r3, lsr #16
	mov	r3, r1, lsr #16
	tst	r1, #16777216
	bne	.L795
	cmp	r3, #0
	bne	.L797
	orr	r3, r2, #66
	b	.L800
.L802:
	.align	0
.L801:
	.word	halfcarry_sub_table
	.word	overflow_sub_table
.L797:
	orr	r3, r2, #2
	b	.L800
.L795:
	orr	r3, r2, #3
.L800:
	orr	r3, lr, r3
	orr	r3, r3, ip
	orr	r3, r3, r0
	strb	r3, [r4, #0]
	ldmfd	sp!, {r4, lr}
	bx	lr
	.align	0
op_0xbc__FP16_z80_cpu_context:
	@ args = 0, pretend = 0, frame = 0
	@ frame_needed = 0, current_function_anonymous_args = 0
	stmfd	sp!, {r4, lr}
	mov	r4, r0
	ldrb	r1, [r4, #1]	@ zero_extendqisi2
	ldrb	r3, [r4, #13]	@ zero_extendqisi2
	rsb	r1, r3, r1
	mov	r1, r1, asl #16
	ldrb	r2, [r4, #1]
	and	r2, r2, #136
	ldrb	ip, [r4, #13]
	and	r3, ip, #136
	mov	r3, r3, lsr #2
	orr	r3, r3, r2, lsr #3
	and	r2, r1, #8912896
	orr	r3, r3, r2, lsr #17
	ldr	r0, .L810
	and	r2, r3, #7
	ldrb	lr, [r0, r2]	@ zero_extendqisi2
	ldr	r2, .L810+4
	ldrb	r2, [r2, r3, lsr #4]	@ zero_extendqisi2
	and	ip, ip, #40
	and	r3, r1, #8388608
	mov	r0, r3, lsr #16
	mov	r3, r1, lsr #16
	tst	r1, #16777216
	bne	.L804
	cmp	r3, #0
	bne	.L806
	orr	r3, r2, #66
	b	.L809
.L811:
	.align	0
.L810:
	.word	halfcarry_sub_table
	.word	overflow_sub_table
.L806:
	orr	r3, r2, #2
	b	.L809
.L804:
	orr	r3, r2, #3
.L809:
	orr	r3, lr, r3
	orr	r3, r3, ip
	orr	r3, r3, r0
	strb	r3, [r4, #0]
	ldmfd	sp!, {r4, lr}
	bx	lr
	.align	0
op_0xbd__FP16_z80_cpu_context:
	@ args = 0, pretend = 0, frame = 0
	@ frame_needed = 0, current_function_anonymous_args = 0
	stmfd	sp!, {r4, lr}
	mov	r4, r0
	ldrb	r1, [r4, #1]	@ zero_extendqisi2
	ldrb	r3, [r4, #12]	@ zero_extendqisi2
	rsb	r1, r3, r1
	mov	r1, r1, asl #16
	ldrb	r2, [r4, #1]
	and	r2, r2, #136
	ldrb	ip, [r4, #12]
	and	r3, ip, #136
	mov	r3, r3, lsr #2
	orr	r3, r3, r2, lsr #3
	and	r2, r1, #8912896
	orr	r3, r3, r2, lsr #17
	ldr	r0, .L819
	and	r2, r3, #7
	ldrb	lr, [r0, r2]	@ zero_extendqisi2
	ldr	r2, .L819+4
	ldrb	r2, [r2, r3, lsr #4]	@ zero_extendqisi2
	and	ip, ip, #40
	and	r3, r1, #8388608
	mov	r0, r3, lsr #16
	mov	r3, r1, lsr #16
	tst	r1, #16777216
	bne	.L813
	cmp	r3, #0
	bne	.L815
	orr	r3, r2, #66
	b	.L818
.L820:
	.align	0
.L819:
	.word	halfcarry_sub_table
	.word	overflow_sub_table
.L815:
	orr	r3, r2, #2
	b	.L818
.L813:
	orr	r3, r2, #3
.L818:
	orr	r3, lr, r3
	orr	r3, r3, ip
	orr	r3, r3, r0
	strb	r3, [r4, #0]
	ldmfd	sp!, {r4, lr}
	bx	lr
	.align	0
op_0xbe__FP16_z80_cpu_context:
	@ args = 0, pretend = 0, frame = 0
	@ frame_needed = 0, current_function_anonymous_args = 0
	stmfd	sp!, {r4, lr}
	mov	r4, r0
	ldrb	r3, [r4, #12]	@ zero_extendqisi2
	ldrb	r1, [r4, #13]	@ zero_extendqisi2
	orr	r1, r3, r1, asl #8
	mov	r2, #0
	ldr	r3, [r4, #120]
	ldr	ip, [r4, #116]
	mov	lr, pc
	bx	ip
	strb	r0, [r4, #148]
	ldrb	r1, [r4, #1]	@ zero_extendqisi2
	ldrb	r3, [r4, #148]	@ zero_extendqisi2
	rsb	r1, r3, r1
	mov	r1, r1, asl #16
	ldrb	r2, [r4, #1]
	and	r2, r2, #136
	and	r3, r0, #136
	mov	r3, r3, lsr #2
	orr	r3, r3, r2, lsr #3
	and	r2, r1, #8912896
	orr	r3, r3, r2, lsr #17
	ldr	ip, .L828
	and	r2, r3, #7
	ldrb	lr, [ip, r2]	@ zero_extendqisi2
	ldr	r2, .L828+4
	ldrb	r2, [r2, r3, lsr #4]	@ zero_extendqisi2
	and	r0, r0, #40
	and	r3, r1, #8388608
	mov	ip, r3, lsr #16
	mov	r3, r1, lsr #16
	tst	r1, #16777216
	bne	.L822
	cmp	r3, #0
	bne	.L824
	orr	r3, r2, #66
	b	.L827
.L829:
	.align	0
.L828:
	.word	halfcarry_sub_table
	.word	overflow_sub_table
.L824:
	orr	r3, r2, #2
	b	.L827
.L822:
	orr	r3, r2, #3
.L827:
	orr	r3, lr, r3
	orr	r3, r3, r0
	orr	r3, r3, ip
	strb	r3, [r4, #0]
	ldmfd	sp!, {r4, lr}
	bx	lr
	.align	0
op_0xbf__FP16_z80_cpu_context:
	@ args = 0, pretend = 0, frame = 0
	@ frame_needed = 0, current_function_anonymous_args = 0
	ldrb	ip, [r0, #1]
	and	r3, ip, #136
	mov	r1, r3, lsr #2
	orr	r1, r1, r3, lsr #3
	ldr	r2, .L836
	and	r3, r1, #7
	ldrb	r2, [r2, r3]	@ zero_extendqisi2
	ldr	r3, .L836+4
	ldrb	r3, [r3, r1, lsr #4]	@ zero_extendqisi2
	and	ip, ip, #40
	orr	r3, r3, #66
	orr	r2, r2, r3
	orr	r2, r2, ip
	strb	r2, [r0, #0]
	bx	lr
.L837:
	.align	0
.L836:
	.word	halfcarry_sub_table
	.word	overflow_sub_table
	.align	0
op_0xc0__FP16_z80_cpu_context:
	@ args = 0, pretend = 0, frame = 0
	@ frame_needed = 0, current_function_anonymous_args = 0
	stmfd	sp!, {r4, r5, r6, lr}
	mov	r4, r0
	ldrb	r3, [r4, #0]
	ands	r6, r3, #64
	bne	.L838
	ldrh	r1, [r4, #48]	@ movhi
	add	r3, r1, #1
	strh	r3, [r4, #48]	@ movhi   ;; CYGNUS LOCAL nickc
	mov	r1, r1, asl #16
	mov	r1, r1, lsr #16
	mov	r2, r6
	ldr	r3, [r4, #120]
	ldr	ip, [r4, #116]
	mov	lr, pc
	bx	ip
	and	r0, r0, #255
	bic	r3, r5, #255
	orr	r5, r0, r3
	ldrh	r1, [r4, #48]	@ movhi
	add	r3, r1, #1
	strh	r3, [r4, #48]	@ movhi   ;; CYGNUS LOCAL nickc
	mov	r1, r1, asl #16
	mov	r0, r4
	mov	r1, r1, lsr #16
	mov	r2, r6
	ldr	r3, [r4, #120]
	ldr	ip, [r4, #116]
	mov	lr, pc
	bx	ip
	and	r0, r0, #255
	bic	r3, r5, #65280
	orr	r5, r3, r0, asl #8
	strh	r5, [r4, #52]	@ movhi   ;; CYGNUS LOCAL nickc
	strh	r5, [r4, #60]	@ movhi   ;; CYGNUS LOCAL nickc
.L838:
	ldmfd	sp!, {r4, r5, r6, lr}
	bx	lr
	.align	0
op_0xc1__FP16_z80_cpu_context:
	@ args = 0, pretend = 0, frame = 0
	@ frame_needed = 0, current_function_anonymous_args = 0
	stmfd	sp!, {r4, r5, lr}
	mov	r4, r0
	ldrh	r1, [r4, #48]	@ movhi
	add	r3, r1, #1
	strh	r3, [r4, #48]	@ movhi   ;; CYGNUS LOCAL nickc
	mov	r1, r1, asl #16
	mov	r1, r1, lsr #16
	mov	r2, #0
	ldr	r3, [r4, #120]
	ldr	ip, [r4, #116]
	mov	lr, pc
	bx	ip
	and	r0, r0, #255
	bic	r3, r5, #255
	orr	r5, r0, r3
	ldrh	r1, [r4, #48]	@ movhi
	add	r3, r1, #1
	strh	r3, [r4, #48]	@ movhi   ;; CYGNUS LOCAL nickc
	mov	r1, r1, asl #16
	mov	r0, r4
	mov	r1, r1, lsr #16
	mov	r2, #0
	ldr	r3, [r4, #120]
	ldr	ip, [r4, #116]
	mov	lr, pc
	bx	ip
	and	r0, r0, #255
	bic	r3, r5, #65280
	orr	r5, r3, r0, asl #8
	strh	r5, [r4, #4]	@ movhi   ;; CYGNUS LOCAL nickc
	ldmfd	sp!, {r4, r5, lr}
	bx	lr
	.align	0
op_0xc2__FP16_z80_cpu_context:
	@ args = 0, pretend = 0, frame = 0
	@ frame_needed = 0, current_function_anonymous_args = 0
	stmfd	sp!, {r4, r5, r6, lr}
	mov	r4, r0
	ldrb	r3, [r4, #88]	@ zero_extendqisi2
	cmp	r3, #0
	beq	.L845
	ldr	r1, [r4, #136]
	ldr	ip, [r4, #132]
	mov	lr, pc
	bx	ip
	b	.L846
.L845:
	ldrh	r1, [r4, #52]	@ movhi
	add	r3, r1, #1
	strh	r3, [r4, #52]	@ movhi   ;; CYGNUS LOCAL nickc
	mov	r1, r1, asl #16
	mov	r0, r4
	mov	r1, r1, lsr #16
	mov	r2, #0
	ldr	r3, [r4, #120]
	ldr	ip, [r4, #116]
	mov	lr, pc
	bx	ip
.L846:
	strb	r0, [r4, #140]
	ldrb	r3, [r4, #88]	@ zero_extendqisi2
	cmp	r3, #0
	beq	.L847
	mov	r0, r4
	ldr	r1, [r4, #136]
	ldr	ip, [r4, #132]
	mov	lr, pc
	bx	ip
	b	.L848
.L847:
	ldrh	r1, [r4, #52]	@ movhi
	add	r3, r1, #1
	strh	r3, [r4, #52]	@ movhi   ;; CYGNUS LOCAL nickc
	mov	r1, r1, asl #16
	mov	r0, r4
	mov	r1, r1, lsr #16
	mov	r2, #0
	ldr	r3, [r4, #120]
	ldr	ip, [r4, #116]
	mov	lr, pc
	bx	ip
.L848:
	strb	r0, [r4, #141]
	ldrb	r5, [r4, #0]
	tst	r5, #64
	ldreqh	r3, [r4, #140]	@ movhi
	streqh	r3, [r4, #52]	@ movhi   ;; CYGNUS LOCAL nickc
	streqh	r3, [r4, #60]	@ movhi   ;; CYGNUS LOCAL nickc
.L849:
	ldrneb	r5, [r4, #140]	@ zero_extendqisi2
	ldrneb	r6, [r4, #141]	@ zero_extendqisi2
	orrne	r6, r5, r6, asl #8
	strneh	r6, [r4, #60]	@ movhi   ;; CYGNUS LOCAL nickc
.L844:
	ldmfd	sp!, {r4, r5, r6, lr}
	bx	lr
	.align	0
op_0xc3__FP16_z80_cpu_context:
	@ args = 0, pretend = 0, frame = 0
	@ frame_needed = 0, current_function_anonymous_args = 0
	stmfd	sp!, {r4, lr}
	mov	r4, r0
	ldrb	r3, [r4, #88]	@ zero_extendqisi2
	cmp	r3, #0
	beq	.L853
	ldr	r1, [r4, #136]
	ldr	ip, [r4, #132]
	mov	lr, pc
	bx	ip
	b	.L854
.L853:
	ldrh	r1, [r4, #52]	@ movhi
	add	r3, r1, #1
	strh	r3, [r4, #52]	@ movhi   ;; CYGNUS LOCAL nickc
	mov	r1, r1, asl #16
	mov	r0, r4
	mov	r1, r1, lsr #16
	mov	r2, #0
	ldr	r3, [r4, #120]
	ldr	ip, [r4, #116]
	mov	lr, pc
	bx	ip
.L854:
	strb	r0, [r4, #140]
	ldrb	r3, [r4, #88]	@ zero_extendqisi2
	cmp	r3, #0
	beq	.L855
	mov	r0, r4
	ldr	r1, [r4, #136]
	ldr	ip, [r4, #132]
	mov	lr, pc
	bx	ip
	b	.L856
.L855:
	ldrh	r1, [r4, #52]	@ movhi
	add	r3, r1, #1
	strh	r3, [r4, #52]	@ movhi   ;; CYGNUS LOCAL nickc
	mov	r1, r1, asl #16
	mov	r0, r4
	mov	r1, r1, lsr #16
	mov	r2, #0
	ldr	r3, [r4, #120]
	ldr	ip, [r4, #116]
	mov	lr, pc
	bx	ip
.L856:
	strb	r0, [r4, #141]
	ldrh	r3, [r4, #140]	@ movhi
	strh	r3, [r4, #52]	@ movhi   ;; CYGNUS LOCAL nickc
	strh	r3, [r4, #60]	@ movhi   ;; CYGNUS LOCAL nickc
	ldmfd	sp!, {r4, lr}
	bx	lr
	.align	0
op_0xc4__FP16_z80_cpu_context:
	@ args = 0, pretend = 0, frame = 0
	@ frame_needed = 0, current_function_anonymous_args = 0
	stmfd	sp!, {r4, r5, r6, r7, lr}
	mov	r4, r0
	ldrb	r3, [r4, #88]	@ zero_extendqisi2
	cmp	r3, #0
	beq	.L859
	ldr	r1, [r4, #136]
	ldr	ip, [r4, #132]
	mov	lr, pc
	bx	ip
	b	.L860
.L859:
	ldrh	r1, [r4, #52]	@ movhi
	add	r3, r1, #1
	strh	r3, [r4, #52]	@ movhi   ;; CYGNUS LOCAL nickc
	mov	r1, r1, asl #16
	mov	r0, r4
	mov	r1, r1, lsr #16
	mov	r2, #0
	ldr	r3, [r4, #120]
	ldr	ip, [r4, #116]
	mov	lr, pc
	bx	ip
.L860:
	strb	r0, [r4, #140]
	ldrb	r3, [r4, #88]	@ zero_extendqisi2
	cmp	r3, #0
	beq	.L861
	mov	r0, r4
	ldr	r1, [r4, #136]
	ldr	ip, [r4, #132]
	mov	lr, pc
	bx	ip
	b	.L862
.L861:
	ldrh	r1, [r4, #52]	@ movhi
	add	r3, r1, #1
	strh	r3, [r4, #52]	@ movhi   ;; CYGNUS LOCAL nickc
	mov	r1, r1, asl #16
	mov	r0, r4
	mov	r1, r1, lsr #16
	mov	r2, #0
	ldr	r3, [r4, #120]
	ldr	ip, [r4, #116]
	mov	lr, pc
	bx	ip
.L862:
	strb	r0, [r4, #141]
	ldrb	r6, [r4, #0]
	tst	r6, #64
	bne	.L863
	ldrh	r3, [r4, #52]	@ movhi
	mov	r3, r3, asl #16
	orr	r3, r3, r5, lsr #16
	mov	r5, r3, ror #16
	ldrh	r1, [r4, #48]	@ movhi
	sub	r1, r1, #1
	strh	r1, [r4, #48]	@ movhi   ;; CYGNUS LOCAL nickc
	mov	r1, r1, asl #16
	mov	r2, r5, lsr #8
	mov	r0, r4
	mov	r1, r1, lsr #16
	and	r2, r2, #255
	ldr	r3, [r4, #128]
	ldr	ip, [r4, #124]
	mov	lr, pc
	bx	ip
	ldrh	r1, [r4, #48]	@ movhi
	sub	r1, r1, #1
	strh	r1, [r4, #48]	@ movhi   ;; CYGNUS LOCAL nickc
	mov	r1, r1, asl #16
	and	r2, r5, #255
	mov	r0, r4
	mov	r1, r1, lsr #16
	ldr	r3, [r4, #128]
	ldr	ip, [r4, #124]
	mov	lr, pc
	bx	ip
	ldrh	r3, [r4, #140]	@ movhi
	strh	r3, [r4, #52]	@ movhi   ;; CYGNUS LOCAL nickc
	strh	r3, [r4, #60]	@ movhi   ;; CYGNUS LOCAL nickc
	b	.L858
.L863:
	ldrb	r6, [r4, #140]	@ zero_extendqisi2
	ldrb	r7, [r4, #141]	@ zero_extendqisi2
	orr	r7, r6, r7, asl #8
	strh	r7, [r4, #60]	@ movhi   ;; CYGNUS LOCAL nickc
.L858:
	ldmfd	sp!, {r4, r5, r6, r7, lr}
	bx	lr
	.align	0
op_0xc5__FP16_z80_cpu_context:
	@ args = 0, pretend = 0, frame = 0
	@ frame_needed = 0, current_function_anonymous_args = 0
	stmfd	sp!, {r4, r5, lr}
	mov	r4, r0
	ldrh	r3, [r4, #4]	@ movhi
	mov	r3, r3, asl #16
	orr	r3, r3, r5, lsr #16
	mov	r5, r3, ror #16
	ldrh	r1, [r4, #48]	@ movhi
	sub	r1, r1, #1
	strh	r1, [r4, #48]	@ movhi   ;; CYGNUS LOCAL nickc
	mov	r1, r1, asl #16
	mov	r2, r5, lsr #8
	mov	r1, r1, lsr #16
	and	r2, r2, #255
	ldr	r3, [r4, #128]
	ldr	ip, [r4, #124]
	mov	lr, pc
	bx	ip
	ldrh	r1, [r4, #48]	@ movhi
	sub	r1, r1, #1
	strh	r1, [r4, #48]	@ movhi   ;; CYGNUS LOCAL nickc
	mov	r1, r1, asl #16
	and	r2, r5, #255
	mov	r0, r4
	mov	r1, r1, lsr #16
	ldr	r3, [r4, #128]
	ldr	ip, [r4, #124]
	mov	lr, pc
	bx	ip
	ldmfd	sp!, {r4, r5, lr}
	bx	lr
	.align	0
op_0xc6__FP16_z80_cpu_context:
	@ args = 0, pretend = 0, frame = 0
	@ frame_needed = 0, current_function_anonymous_args = 0
	stmfd	sp!, {r4, lr}
	mov	r4, r0
	ldrb	r3, [r4, #88]	@ zero_extendqisi2
	cmp	r3, #0
	beq	.L869
	ldr	r1, [r4, #136]
	ldr	ip, [r4, #132]
	mov	lr, pc
	bx	ip
	b	.L874
.L869:
	ldrh	r1, [r4, #52]	@ movhi
	add	r3, r1, #1
	strh	r3, [r4, #52]	@ movhi   ;; CYGNUS LOCAL nickc
	mov	r1, r1, asl #16
	mov	r0, r4
	mov	r1, r1, lsr #16
	mov	r2, #0
	ldr	r3, [r4, #120]
	ldr	ip, [r4, #116]
	mov	lr, pc
	bx	ip
.L874:
	mov	r1, r0
	strb	r1, [r4, #148]
	ldrb	r0, [r4, #1]	@ zero_extendqisi2
	ldrb	r3, [r4, #148]	@ zero_extendqisi2
	add	r0, r0, r3
	ldrb	r2, [r4, #1]
	and	r2, r2, #136
	and	r3, r1, #136
	mov	r3, r3, lsr #2
	orr	r3, r3, r2, lsr #3
	and	r2, r0, #136
	orr	r3, r3, r2, lsr #1
	strb	r0, [r4, #1]
	ldr	r1, .L876
	and	r2, r3, #7
	ldrb	ip, [r1, r2]	@ zero_extendqisi2
	ldr	r2, .L876+4
	ldrb	r1, [r2, r3, lsr #4]	@ zero_extendqisi2
	ldr	r2, .L876+8
	ldrb	r3, [r4, #1]	@ zero_extendqisi2
	ldrb	r2, [r2, r3]	@ zero_extendqisi2
	tst	r0, #256
	beq	.L871
	orr	r3, r1, #1
	orr	r3, ip, r3
	b	.L875
.L877:
	.align	0
.L876:
	.word	halfcarry_add_table
	.word	overflow_add_table
	.word	sz53_table
.L871:
	orr	r3, ip, r1
.L875:
	orr	r3, r3, r2
	strb	r3, [r4, #0]
	ldmfd	sp!, {r4, lr}
	bx	lr
	.align	0
op_0xc7__FP16_z80_cpu_context:
	@ args = 0, pretend = 0, frame = 0
	@ frame_needed = 0, current_function_anonymous_args = 0
	stmfd	sp!, {r4, r5, lr}
	mov	r4, r0
	ldrh	r3, [r4, #52]	@ movhi
	mov	r3, r3, asl #16
	orr	r3, r3, r5, lsr #16
	mov	r5, r3, ror #16
	ldrh	r1, [r4, #48]	@ movhi
	sub	r1, r1, #1
	strh	r1, [r4, #48]	@ movhi   ;; CYGNUS LOCAL nickc
	mov	r1, r1, asl #16
	mov	r2, r5, lsr #8
	mov	r1, r1, lsr #16
	and	r2, r2, #255
	ldr	r3, [r4, #128]
	ldr	ip, [r4, #124]
	mov	lr, pc
	bx	ip
	ldrh	r1, [r4, #48]	@ movhi
	sub	r1, r1, #1
	strh	r1, [r4, #48]	@ movhi   ;; CYGNUS LOCAL nickc
	mov	r1, r1, asl #16
	and	r2, r5, #255
	mov	r0, r4
	mov	r1, r1, lsr #16
	ldr	r3, [r4, #128]
	ldr	ip, [r4, #124]
	mov	lr, pc
	bx	ip
	mov	r3, #0
	strh	r3, [r4, #52]	@ movhi   ;; CYGNUS LOCAL nickc
	strh	r3, [r4, #60]	@ movhi   ;; CYGNUS LOCAL nickc
	ldmfd	sp!, {r4, r5, lr}
	bx	lr
	.align	0
op_0xc8__FP16_z80_cpu_context:
	@ args = 0, pretend = 0, frame = 0
	@ frame_needed = 0, current_function_anonymous_args = 0
	stmfd	sp!, {r4, r5, lr}
	mov	r4, r0
	ldrb	ip, [r4, #0]
	tst	ip, #64
	beq	.L880
	ldrh	r1, [r4, #48]	@ movhi
	add	r3, r1, #1
	strh	r3, [r4, #48]	@ movhi   ;; CYGNUS LOCAL nickc
	mov	r1, r1, asl #16
	mov	r1, r1, lsr #16
	mov	r2, #0
	ldr	r3, [r4, #120]
	ldr	ip, [r4, #116]
	mov	lr, pc
	bx	ip
	and	r0, r0, #255
	bic	r3, r5, #255
	orr	r5, r0, r3
	ldrh	r1, [r4, #48]	@ movhi
	add	r3, r1, #1
	strh	r3, [r4, #48]	@ movhi   ;; CYGNUS LOCAL nickc
	mov	r1, r1, asl #16
	mov	r0, r4
	mov	r1, r1, lsr #16
	mov	r2, #0
	ldr	r3, [r4, #120]
	ldr	ip, [r4, #116]
	mov	lr, pc
	bx	ip
	and	r0, r0, #255
	bic	r3, r5, #65280
	orr	r5, r3, r0, asl #8
	strh	r5, [r4, #52]	@ movhi   ;; CYGNUS LOCAL nickc
	strh	r5, [r4, #60]	@ movhi   ;; CYGNUS LOCAL nickc
.L880:
	ldmfd	sp!, {r4, r5, lr}
	bx	lr
	.align	0
op_0xc9__FP16_z80_cpu_context:
	@ args = 0, pretend = 0, frame = 0
	@ frame_needed = 0, current_function_anonymous_args = 0
	stmfd	sp!, {r4, r5, lr}
	mov	r4, r0
	ldrh	r1, [r4, #48]	@ movhi
	add	r3, r1, #1
	strh	r3, [r4, #48]	@ movhi   ;; CYGNUS LOCAL nickc
	mov	r1, r1, asl #16
	mov	r1, r1, lsr #16
	mov	r2, #0
	ldr	r3, [r4, #120]
	ldr	ip, [r4, #116]
	mov	lr, pc
	bx	ip
	and	r0, r0, #255
	bic	r3, r5, #255
	orr	r5, r0, r3
	ldrh	r1, [r4, #48]	@ movhi
	add	r3, r1, #1
	strh	r3, [r4, #48]	@ movhi   ;; CYGNUS LOCAL nickc
	mov	r1, r1, asl #16
	mov	r0, r4
	mov	r1, r1, lsr #16
	mov	r2, #0
	ldr	r3, [r4, #120]
	ldr	ip, [r4, #116]
	mov	lr, pc
	bx	ip
	and	r0, r0, #255
	bic	r3, r5, #65280
	orr	r5, r3, r0, asl #8
	strh	r5, [r4, #52]	@ movhi   ;; CYGNUS LOCAL nickc
	strh	r5, [r4, #60]	@ movhi   ;; CYGNUS LOCAL nickc
	ldmfd	sp!, {r4, r5, lr}
	bx	lr
	.align	0
op_0xca__FP16_z80_cpu_context:
	@ args = 0, pretend = 0, frame = 0
	@ frame_needed = 0, current_function_anonymous_args = 0
	stmfd	sp!, {r4, r5, r6, lr}
	mov	r4, r0
	ldrb	r3, [r4, #88]	@ zero_extendqisi2
	cmp	r3, #0
	beq	.L887
	ldr	r1, [r4, #136]
	ldr	ip, [r4, #132]
	mov	lr, pc
	bx	ip
	b	.L888
.L887:
	ldrh	r1, [r4, #52]	@ movhi
	add	r3, r1, #1
	strh	r3, [r4, #52]	@ movhi   ;; CYGNUS LOCAL nickc
	mov	r1, r1, asl #16
	mov	r0, r4
	mov	r1, r1, lsr #16
	mov	r2, #0
	ldr	r3, [r4, #120]
	ldr	ip, [r4, #116]
	mov	lr, pc
	bx	ip
.L888:
	strb	r0, [r4, #140]
	ldrb	r3, [r4, #88]	@ zero_extendqisi2
	cmp	r3, #0
	beq	.L889
	mov	r0, r4
	ldr	r1, [r4, #136]
	ldr	ip, [r4, #132]
	mov	lr, pc
	bx	ip
	b	.L890
.L889:
	ldrh	r1, [r4, #52]	@ movhi
	add	r3, r1, #1
	strh	r3, [r4, #52]	@ movhi   ;; CYGNUS LOCAL nickc
	mov	r1, r1, asl #16
	mov	r0, r4
	mov	r1, r1, lsr #16
	mov	r2, #0
	ldr	r3, [r4, #120]
	ldr	ip, [r4, #116]
	mov	lr, pc
	bx	ip
.L890:
	strb	r0, [r4, #141]
	ldrb	r5, [r4, #0]
	tst	r5, #64
	ldrneh	r3, [r4, #140]	@ movhi
	strneh	r3, [r4, #52]	@ movhi   ;; CYGNUS LOCAL nickc
	strneh	r3, [r4, #60]	@ movhi   ;; CYGNUS LOCAL nickc
.L891:
	ldreqb	r5, [r4, #140]	@ zero_extendqisi2
	ldreqb	r6, [r4, #141]	@ zero_extendqisi2
	orreq	r6, r5, r6, asl #8
	streqh	r6, [r4, #60]	@ movhi   ;; CYGNUS LOCAL nickc
.L886:
	ldmfd	sp!, {r4, r5, r6, lr}
	bx	lr
	.align	0
op_p_CB__FP16_z80_cpu_context:
	@ args = 0, pretend = 0, frame = 0
	@ frame_needed = 0, current_function_anonymous_args = 0
	mov	r3, #203
	strb	r3, [r0, #89]
	mov	r3, #1
	str	r3, [r0, #80]
	bx	lr
	.align	0
op_0xcc__FP16_z80_cpu_context:
	@ args = 0, pretend = 0, frame = 0
	@ frame_needed = 0, current_function_anonymous_args = 0
	stmfd	sp!, {r4, r5, r6, r7, lr}
	mov	r4, r0
	ldrb	r3, [r4, #88]	@ zero_extendqisi2
	cmp	r3, #0
	beq	.L897
	ldr	r1, [r4, #136]
	ldr	ip, [r4, #132]
	mov	lr, pc
	bx	ip
	b	.L898
.L897:
	ldrh	r1, [r4, #52]	@ movhi
	add	r3, r1, #1
	strh	r3, [r4, #52]	@ movhi   ;; CYGNUS LOCAL nickc
	mov	r1, r1, asl #16
	mov	r0, r4
	mov	r1, r1, lsr #16
	mov	r2, #0
	ldr	r3, [r4, #120]
	ldr	ip, [r4, #116]
	mov	lr, pc
	bx	ip
.L898:
	strb	r0, [r4, #140]
	ldrb	r3, [r4, #88]	@ zero_extendqisi2
	cmp	r3, #0
	beq	.L899
	mov	r0, r4
	ldr	r1, [r4, #136]
	ldr	ip, [r4, #132]
	mov	lr, pc
	bx	ip
	b	.L900
.L899:
	ldrh	r1, [r4, #52]	@ movhi
	add	r3, r1, #1
	strh	r3, [r4, #52]	@ movhi   ;; CYGNUS LOCAL nickc
	mov	r1, r1, asl #16
	mov	r0, r4
	mov	r1, r1, lsr #16
	mov	r2, #0
	ldr	r3, [r4, #120]
	ldr	ip, [r4, #116]
	mov	lr, pc
	bx	ip
.L900:
	strb	r0, [r4, #141]
	ldrb	r6, [r4, #0]
	tst	r6, #64
	beq	.L901
	ldrh	r3, [r4, #52]	@ movhi
	mov	r3, r3, asl #16
	orr	r3, r3, r5, lsr #16
	mov	r5, r3, ror #16
	ldrh	r1, [r4, #48]	@ movhi
	sub	r1, r1, #1
	strh	r1, [r4, #48]	@ movhi   ;; CYGNUS LOCAL nickc
	mov	r1, r1, asl #16
	mov	r2, r5, lsr #8
	mov	r0, r4
	mov	r1, r1, lsr #16
	and	r2, r2, #255
	ldr	r3, [r4, #128]
	ldr	ip, [r4, #124]
	mov	lr, pc
	bx	ip
	ldrh	r1, [r4, #48]	@ movhi
	sub	r1, r1, #1
	strh	r1, [r4, #48]	@ movhi   ;; CYGNUS LOCAL nickc
	mov	r1, r1, asl #16
	and	r2, r5, #255
	mov	r0, r4
	mov	r1, r1, lsr #16
	ldr	r3, [r4, #128]
	ldr	ip, [r4, #124]
	mov	lr, pc
	bx	ip
	ldrh	r3, [r4, #140]	@ movhi
	strh	r3, [r4, #52]	@ movhi   ;; CYGNUS LOCAL nickc
	strh	r3, [r4, #60]	@ movhi   ;; CYGNUS LOCAL nickc
	b	.L896
.L901:
	ldrb	r6, [r4, #140]	@ zero_extendqisi2
	ldrb	r7, [r4, #141]	@ zero_extendqisi2
	orr	r7, r6, r7, asl #8
	strh	r7, [r4, #60]	@ movhi   ;; CYGNUS LOCAL nickc
.L896:
	ldmfd	sp!, {r4, r5, r6, r7, lr}
	bx	lr
	.align	0
op_0xcd__FP16_z80_cpu_context:
	@ args = 0, pretend = 0, frame = 0
	@ frame_needed = 0, current_function_anonymous_args = 0
	stmfd	sp!, {r4, r5, lr}
	mov	r4, r0
	ldrb	r3, [r4, #88]	@ zero_extendqisi2
	cmp	r3, #0
	beq	.L905
	ldr	r1, [r4, #136]
	ldr	ip, [r4, #132]
	mov	lr, pc
	bx	ip
	b	.L906
.L905:
	ldrh	r1, [r4, #52]	@ movhi
	add	r3, r1, #1
	strh	r3, [r4, #52]	@ movhi   ;; CYGNUS LOCAL nickc
	mov	r1, r1, asl #16
	mov	r0, r4
	mov	r1, r1, lsr #16
	mov	r2, #0
	ldr	r3, [r4, #120]
	ldr	ip, [r4, #116]
	mov	lr, pc
	bx	ip
.L906:
	strb	r0, [r4, #140]
	ldrb	r3, [r4, #88]	@ zero_extendqisi2
	cmp	r3, #0
	beq	.L907
	mov	r0, r4
	ldr	r1, [r4, #136]
	ldr	ip, [r4, #132]
	mov	lr, pc
	bx	ip
	b	.L908
.L907:
	ldrh	r1, [r4, #52]	@ movhi
	add	r3, r1, #1
	strh	r3, [r4, #52]	@ movhi   ;; CYGNUS LOCAL nickc
	mov	r1, r1, asl #16
	mov	r0, r4
	mov	r1, r1, lsr #16
	mov	r2, #0
	ldr	r3, [r4, #120]
	ldr	ip, [r4, #116]
	mov	lr, pc
	bx	ip
.L908:
	strb	r0, [r4, #141]
	ldrh	r3, [r4, #52]	@ movhi
	mov	r3, r3, asl #16
	orr	r3, r3, r5, lsr #16
	mov	r5, r3, ror #16
	ldrh	r1, [r4, #48]	@ movhi
	sub	r1, r1, #1
	strh	r1, [r4, #48]	@ movhi   ;; CYGNUS LOCAL nickc
	mov	r1, r1, asl #16
	mov	r2, r5, lsr #8
	mov	r0, r4
	mov	r1, r1, lsr #16
	and	r2, r2, #255
	ldr	r3, [r4, #128]
	ldr	ip, [r4, #124]
	mov	lr, pc
	bx	ip
	ldrh	r1, [r4, #48]	@ movhi
	sub	r1, r1, #1
	strh	r1, [r4, #48]	@ movhi   ;; CYGNUS LOCAL nickc
	mov	r1, r1, asl #16
	and	r2, r5, #255
	mov	r0, r4
	mov	r1, r1, lsr #16
	ldr	r3, [r4, #128]
	ldr	ip, [r4, #124]
	mov	lr, pc
	bx	ip
	ldrh	r3, [r4, #140]	@ movhi
	strh	r3, [r4, #52]	@ movhi   ;; CYGNUS LOCAL nickc
	strh	r3, [r4, #60]	@ movhi   ;; CYGNUS LOCAL nickc
	ldmfd	sp!, {r4, r5, lr}
	bx	lr
	.align	0
op_0xce__FP16_z80_cpu_context:
	@ args = 0, pretend = 0, frame = 0
	@ frame_needed = 0, current_function_anonymous_args = 0
	stmfd	sp!, {r4, lr}
	mov	r4, r0
	ldrb	r3, [r4, #88]	@ zero_extendqisi2
	cmp	r3, #0
	beq	.L911
	ldr	r1, [r4, #136]
	ldr	ip, [r4, #132]
	mov	lr, pc
	bx	ip
	b	.L912
.L911:
	ldrh	r1, [r4, #52]	@ movhi
	add	r3, r1, #1
	strh	r3, [r4, #52]	@ movhi   ;; CYGNUS LOCAL nickc
	mov	r1, r1, asl #16
	mov	r0, r4
	mov	r1, r1, lsr #16
	mov	r2, #0
	ldr	r3, [r4, #120]
	ldr	ip, [r4, #116]
	mov	lr, pc
	bx	ip
.L912:
	strb	r0, [r4, #148]
	ldrb	r2, [r4, #1]	@ zero_extendqisi2
	ldrb	r3, [r4, #148]	@ zero_extendqisi2
	add	r2, r2, r3
	ldrb	r1, [r4, #0]
	and	r1, r1, #1
	add	r1, r1, r2
	ldrb	r2, [r4, #1]
	and	r2, r2, #136
	and	r3, r0, #136
	mov	r3, r3, lsr #2
	orr	r3, r3, r2, lsr #3
	and	r2, r1, #136
	orr	r3, r3, r2, lsr #1
	strb	r1, [r4, #1]
	ldr	r0, .L917
	and	r2, r3, #7
	ldrb	ip, [r0, r2]	@ zero_extendqisi2
	ldr	r2, .L917+4
	ldrb	r0, [r2, r3, lsr #4]	@ zero_extendqisi2
	ldr	r2, .L917+8
	ldrb	r3, [r4, #1]	@ zero_extendqisi2
	ldrb	r2, [r2, r3]	@ zero_extendqisi2
	tst	r1, #256
	beq	.L913
	orr	r3, r0, #1
	orr	r3, ip, r3
	b	.L916
.L918:
	.align	0
.L917:
	.word	halfcarry_add_table
	.word	overflow_add_table
	.word	sz53_table
.L913:
	orr	r3, ip, r0
.L916:
	orr	r3, r3, r2
	strb	r3, [r4, #0]
	ldmfd	sp!, {r4, lr}
	bx	lr
	.align	0
op_0xcf__FP16_z80_cpu_context:
	@ args = 0, pretend = 0, frame = 0
	@ frame_needed = 0, current_function_anonymous_args = 0
	stmfd	sp!, {r4, r5, lr}
	mov	r4, r0
	ldrh	r3, [r4, #52]	@ movhi
	mov	r3, r3, asl #16
	orr	r3, r3, r5, lsr #16
	mov	r5, r3, ror #16
	ldrh	r1, [r4, #48]	@ movhi
	sub	r1, r1, #1
	strh	r1, [r4, #48]	@ movhi   ;; CYGNUS LOCAL nickc
	mov	r1, r1, asl #16
	mov	r2, r5, lsr #8
	mov	r1, r1, lsr #16
	and	r2, r2, #255
	ldr	r3, [r4, #128]
	ldr	ip, [r4, #124]
	mov	lr, pc
	bx	ip
	ldrh	r1, [r4, #48]	@ movhi
	sub	r1, r1, #1
	strh	r1, [r4, #48]	@ movhi   ;; CYGNUS LOCAL nickc
	mov	r1, r1, asl #16
	and	r2, r5, #255
	mov	r0, r4
	mov	r1, r1, lsr #16
	ldr	r3, [r4, #128]
	ldr	ip, [r4, #124]
	mov	lr, pc
	bx	ip
	mov	r3, #8
	strh	r3, [r4, #52]	@ movhi   ;; CYGNUS LOCAL nickc
	strh	r3, [r4, #60]	@ movhi   ;; CYGNUS LOCAL nickc
	ldmfd	sp!, {r4, r5, lr}
	bx	lr
	.align	0
op_0xd0__FP16_z80_cpu_context:
	@ args = 0, pretend = 0, frame = 0
	@ frame_needed = 0, current_function_anonymous_args = 0
	stmfd	sp!, {r4, r5, lr}
	mov	r4, r0
	ldrb	r3, [r4, #0]
	eor	r3, r3, #1
	tst	r3, #1
	beq	.L921
	ldrh	r1, [r4, #48]	@ movhi
	add	r3, r1, #1
	strh	r3, [r4, #48]	@ movhi   ;; CYGNUS LOCAL nickc
	mov	r1, r1, asl #16
	mov	r1, r1, lsr #16
	mov	r2, #0
	ldr	r3, [r4, #120]
	ldr	ip, [r4, #116]
	mov	lr, pc
	bx	ip
	and	r0, r0, #255
	bic	r3, r5, #255
	orr	r5, r0, r3
	ldrh	r1, [r4, #48]	@ movhi
	add	r3, r1, #1
	strh	r3, [r4, #48]	@ movhi   ;; CYGNUS LOCAL nickc
	mov	r1, r1, asl #16
	mov	r0, r4
	mov	r1, r1, lsr #16
	mov	r2, #0
	ldr	r3, [r4, #120]
	ldr	ip, [r4, #116]
	mov	lr, pc
	bx	ip
	and	r0, r0, #255
	bic	r3, r5, #65280
	orr	r5, r3, r0, asl #8
	strh	r5, [r4, #52]	@ movhi   ;; CYGNUS LOCAL nickc
	strh	r5, [r4, #60]	@ movhi   ;; CYGNUS LOCAL nickc
.L921:
	ldmfd	sp!, {r4, r5, lr}
	bx	lr
	.align	0
op_0xd1__FP16_z80_cpu_context:
	@ args = 0, pretend = 0, frame = 0
	@ frame_needed = 0, current_function_anonymous_args = 0
	stmfd	sp!, {r4, r5, lr}
	mov	r4, r0
	ldrh	r1, [r4, #48]	@ movhi
	add	r3, r1, #1
	strh	r3, [r4, #48]	@ movhi   ;; CYGNUS LOCAL nickc
	mov	r1, r1, asl #16
	mov	r1, r1, lsr #16
	mov	r2, #0
	ldr	r3, [r4, #120]
	ldr	ip, [r4, #116]
	mov	lr, pc
	bx	ip
	and	r0, r0, #255
	bic	r3, r5, #255
	orr	r5, r0, r3
	ldrh	r1, [r4, #48]	@ movhi
	add	r3, r1, #1
	strh	r3, [r4, #48]	@ movhi   ;; CYGNUS LOCAL nickc
	mov	r1, r1, asl #16
	mov	r0, r4
	mov	r1, r1, lsr #16
	mov	r2, #0
	ldr	r3, [r4, #120]
	ldr	ip, [r4, #116]
	mov	lr, pc
	bx	ip
	and	r0, r0, #255
	bic	r3, r5, #65280
	orr	r5, r3, r0, asl #8
	strh	r5, [r4, #8]	@ movhi   ;; CYGNUS LOCAL nickc
	ldmfd	sp!, {r4, r5, lr}
	bx	lr
	.align	0
op_0xd2__FP16_z80_cpu_context:
	@ args = 0, pretend = 0, frame = 0
	@ frame_needed = 0, current_function_anonymous_args = 0
	stmfd	sp!, {r4, r5, r6, lr}
	mov	r4, r0
	ldrb	r3, [r4, #88]	@ zero_extendqisi2
	cmp	r3, #0
	beq	.L928
	ldr	r1, [r4, #136]
	ldr	ip, [r4, #132]
	mov	lr, pc
	bx	ip
	b	.L929
.L928:
	ldrh	r1, [r4, #52]	@ movhi
	add	r3, r1, #1
	strh	r3, [r4, #52]	@ movhi   ;; CYGNUS LOCAL nickc
	mov	r1, r1, asl #16
	mov	r0, r4
	mov	r1, r1, lsr #16
	mov	r2, #0
	ldr	r3, [r4, #120]
	ldr	ip, [r4, #116]
	mov	lr, pc
	bx	ip
.L929:
	strb	r0, [r4, #140]
	ldrb	r3, [r4, #88]	@ zero_extendqisi2
	cmp	r3, #0
	beq	.L930
	mov	r0, r4
	ldr	r1, [r4, #136]
	ldr	ip, [r4, #132]
	mov	lr, pc
	bx	ip
	b	.L931
.L930:
	ldrh	r1, [r4, #52]	@ movhi
	add	r3, r1, #1
	strh	r3, [r4, #52]	@ movhi   ;; CYGNUS LOCAL nickc
	mov	r1, r1, asl #16
	mov	r0, r4
	mov	r1, r1, lsr #16
	mov	r2, #0
	ldr	r3, [r4, #120]
	ldr	ip, [r4, #116]
	mov	lr, pc
	bx	ip
.L931:
	strb	r0, [r4, #141]
	ldrb	r3, [r4, #0]
	eor	r3, r3, #1
	tst	r3, #1
	ldrneh	r3, [r4, #140]	@ movhi
	strneh	r3, [r4, #52]	@ movhi   ;; CYGNUS LOCAL nickc
	strneh	r3, [r4, #60]	@ movhi   ;; CYGNUS LOCAL nickc
.L932:
	ldreqb	r5, [r4, #140]	@ zero_extendqisi2
	ldreqb	r6, [r4, #141]	@ zero_extendqisi2
	orreq	r6, r5, r6, asl #8
	streqh	r6, [r4, #60]	@ movhi   ;; CYGNUS LOCAL nickc
.L927:
	ldmfd	sp!, {r4, r5, r6, lr}
	bx	lr
	.align	0
op_0xd3__FP16_z80_cpu_context:
	@ args = 0, pretend = 0, frame = 0
	@ frame_needed = 0, current_function_anonymous_args = 0
	stmfd	sp!, {r4, r5, lr}
	mov	r4, r0
	ldrb	r5, [r4, #1]	@ zero_extendqisi2
	mov	r5, r5, asl #8
	ldrb	r3, [r4, #88]	@ zero_extendqisi2
	cmp	r3, #0
	beq	.L936
	ldr	r1, [r4, #136]
	ldr	ip, [r4, #132]
	mov	lr, pc
	bx	ip
	b	.L939
.L936:
	ldrh	r1, [r4, #52]	@ movhi
	add	r3, r1, #1
	strh	r3, [r4, #52]	@ movhi   ;; CYGNUS LOCAL nickc
	mov	r1, r1, asl #16
	mov	r0, r4
	mov	r1, r1, lsr #16
	mov	r2, #0
	ldr	r3, [r4, #120]
	ldr	ip, [r4, #116]
	mov	lr, pc
	bx	ip
.L939:
	and	r0, r0, #255
	add	r0, r0, r5
	strh	r0, [r4, #140]	@ movhi   ;; CYGNUS LOCAL nickc
	ldrb	r3, [r4, #140]	@ zero_extendqisi2
	ldrb	r1, [r4, #141]	@ zero_extendqisi2
	mov	r0, r4
	orr	r1, r3, r1, asl #8
	ldrb	r2, [r4, #1]	@ zero_extendqisi2
	ldr	r3, [r4, #112]
	ldr	ip, [r4, #108]
	mov	lr, pc
	bx	ip
	ldrb	r3, [r4, #140]
	add	r3, r3, #1
	strb	r3, [r4, #60]
	ldrb	r3, [r4, #1]
	strb	r3, [r4, #61]
	ldmfd	sp!, {r4, r5, lr}
	bx	lr
	.align	0
op_0xd4__FP16_z80_cpu_context:
	@ args = 0, pretend = 0, frame = 0
	@ frame_needed = 0, current_function_anonymous_args = 0
	stmfd	sp!, {r4, r5, r6, r7, lr}
	mov	r4, r0
	ldrb	r3, [r4, #88]	@ zero_extendqisi2
	cmp	r3, #0
	beq	.L941
	ldr	r1, [r4, #136]
	ldr	ip, [r4, #132]
	mov	lr, pc
	bx	ip
	b	.L942
.L941:
	ldrh	r1, [r4, #52]	@ movhi
	add	r3, r1, #1
	strh	r3, [r4, #52]	@ movhi   ;; CYGNUS LOCAL nickc
	mov	r1, r1, asl #16
	mov	r0, r4
	mov	r1, r1, lsr #16
	mov	r2, #0
	ldr	r3, [r4, #120]
	ldr	ip, [r4, #116]
	mov	lr, pc
	bx	ip
.L942:
	strb	r0, [r4, #140]
	ldrb	r3, [r4, #88]	@ zero_extendqisi2
	cmp	r3, #0
	beq	.L943
	mov	r0, r4
	ldr	r1, [r4, #136]
	ldr	ip, [r4, #132]
	mov	lr, pc
	bx	ip
	b	.L944
.L943:
	ldrh	r1, [r4, #52]	@ movhi
	add	r3, r1, #1
	strh	r3, [r4, #52]	@ movhi   ;; CYGNUS LOCAL nickc
	mov	r1, r1, asl #16
	mov	r0, r4
	mov	r1, r1, lsr #16
	mov	r2, #0
	ldr	r3, [r4, #120]
	ldr	ip, [r4, #116]
	mov	lr, pc
	bx	ip
.L944:
	strb	r0, [r4, #141]
	ldrb	r3, [r4, #0]
	eor	r3, r3, #1
	tst	r3, #1
	beq	.L945
	ldrh	r3, [r4, #52]	@ movhi
	mov	r3, r3, asl #16
	orr	r3, r3, r5, lsr #16
	mov	r5, r3, ror #16
	ldrh	r1, [r4, #48]	@ movhi
	sub	r1, r1, #1
	strh	r1, [r4, #48]	@ movhi   ;; CYGNUS LOCAL nickc
	mov	r1, r1, asl #16
	mov	r2, r5, lsr #8
	mov	r0, r4
	mov	r1, r1, lsr #16
	and	r2, r2, #255
	ldr	r3, [r4, #128]
	ldr	ip, [r4, #124]
	mov	lr, pc
	bx	ip
	ldrh	r1, [r4, #48]	@ movhi
	sub	r1, r1, #1
	strh	r1, [r4, #48]	@ movhi   ;; CYGNUS LOCAL nickc
	mov	r1, r1, asl #16
	and	r2, r5, #255
	mov	r0, r4
	mov	r1, r1, lsr #16
	ldr	r3, [r4, #128]
	ldr	ip, [r4, #124]
	mov	lr, pc
	bx	ip
	ldrh	r3, [r4, #140]	@ movhi
	strh	r3, [r4, #52]	@ movhi   ;; CYGNUS LOCAL nickc
	strh	r3, [r4, #60]	@ movhi   ;; CYGNUS LOCAL nickc
	b	.L940
.L945:
	ldrb	r6, [r4, #140]	@ zero_extendqisi2
	ldrb	r7, [r4, #141]	@ zero_extendqisi2
	orr	r7, r6, r7, asl #8
	strh	r7, [r4, #60]	@ movhi   ;; CYGNUS LOCAL nickc
.L940:
	ldmfd	sp!, {r4, r5, r6, r7, lr}
	bx	lr
	.align	0
op_0xd5__FP16_z80_cpu_context:
	@ args = 0, pretend = 0, frame = 0
	@ frame_needed = 0, current_function_anonymous_args = 0
	stmfd	sp!, {r4, r5, lr}
	mov	r4, r0
	ldrh	r3, [r4, #8]	@ movhi
	mov	r3, r3, asl #16
	orr	r3, r3, r5, lsr #16
	mov	r5, r3, ror #16
	ldrh	r1, [r4, #48]	@ movhi
	sub	r1, r1, #1
	strh	r1, [r4, #48]	@ movhi   ;; CYGNUS LOCAL nickc
	mov	r1, r1, asl #16
	mov	r2, r5, lsr #8
	mov	r1, r1, lsr #16
	and	r2, r2, #255
	ldr	r3, [r4, #128]
	ldr	ip, [r4, #124]
	mov	lr, pc
	bx	ip
	ldrh	r1, [r4, #48]	@ movhi
	sub	r1, r1, #1
	strh	r1, [r4, #48]	@ movhi   ;; CYGNUS LOCAL nickc
	mov	r1, r1, asl #16
	and	r2, r5, #255
	mov	r0, r4
	mov	r1, r1, lsr #16
	ldr	r3, [r4, #128]
	ldr	ip, [r4, #124]
	mov	lr, pc
	bx	ip
	ldmfd	sp!, {r4, r5, lr}
	bx	lr
	.align	0
op_0xd6__FP16_z80_cpu_context:
	@ args = 0, pretend = 0, frame = 0
	@ frame_needed = 0, current_function_anonymous_args = 0
	stmfd	sp!, {r4, lr}
	mov	r4, r0
	ldrb	r3, [r4, #88]	@ zero_extendqisi2
	cmp	r3, #0
	beq	.L951
	ldr	r1, [r4, #136]
	ldr	ip, [r4, #132]
	mov	lr, pc
	bx	ip
	b	.L952
.L951:
	ldrh	r1, [r4, #52]	@ movhi
	add	r3, r1, #1
	strh	r3, [r4, #52]	@ movhi   ;; CYGNUS LOCAL nickc
	mov	r1, r1, asl #16
	mov	r0, r4
	mov	r1, r1, lsr #16
	mov	r2, #0
	ldr	r3, [r4, #120]
	ldr	ip, [r4, #116]
	mov	lr, pc
	bx	ip
.L952:
	strb	r0, [r4, #148]
	ldrb	r3, [r4, #1]	@ zero_extendqisi2
	ldrb	r2, [r4, #148]	@ zero_extendqisi2
	rsb	r3, r2, r3
	mov	r3, r3, asl #16
	ldrb	r1, [r4, #1]
	and	r1, r1, #136
	and	r2, r0, #136
	mov	r2, r2, lsr #2
	orr	r2, r2, r1, lsr #3
	mov	r0, r3, lsr #16
	and	r3, r3, #8912896
	orr	r2, r2, r3, lsr #17
	strb	r0, [r4, #1]
	ldr	r1, .L957
	and	r3, r2, #7
	ldrb	ip, [r1, r3]	@ zero_extendqisi2
	ldr	r3, .L957+4
	ldrb	r1, [r3, r2, lsr #4]	@ zero_extendqisi2
	ldr	r2, .L957+8
	ldrb	r3, [r4, #1]	@ zero_extendqisi2
	ldrb	r2, [r2, r3]	@ zero_extendqisi2
	tst	r0, #256
	beq	.L953
	orr	r3, r1, #3
	b	.L956
.L958:
	.align	0
.L957:
	.word	halfcarry_sub_table
	.word	overflow_sub_table
	.word	sz53_table
.L953:
	orr	r3, r1, #2
.L956:
	orr	r3, ip, r3
	orr	r3, r3, r2
	strb	r3, [r4, #0]
	ldmfd	sp!, {r4, lr}
	bx	lr
	.align	0
op_0xd7__FP16_z80_cpu_context:
	@ args = 0, pretend = 0, frame = 0
	@ frame_needed = 0, current_function_anonymous_args = 0
	stmfd	sp!, {r4, r5, lr}
	mov	r4, r0
	ldrh	r3, [r4, #52]	@ movhi
	mov	r3, r3, asl #16
	orr	r3, r3, r5, lsr #16
	mov	r5, r3, ror #16
	ldrh	r1, [r4, #48]	@ movhi
	sub	r1, r1, #1
	strh	r1, [r4, #48]	@ movhi   ;; CYGNUS LOCAL nickc
	mov	r1, r1, asl #16
	mov	r2, r5, lsr #8
	mov	r1, r1, lsr #16
	and	r2, r2, #255
	ldr	r3, [r4, #128]
	ldr	ip, [r4, #124]
	mov	lr, pc
	bx	ip
	ldrh	r1, [r4, #48]	@ movhi
	sub	r1, r1, #1
	strh	r1, [r4, #48]	@ movhi   ;; CYGNUS LOCAL nickc
	mov	r1, r1, asl #16
	and	r2, r5, #255
	mov	r0, r4
	mov	r1, r1, lsr #16
	ldr	r3, [r4, #128]
	ldr	ip, [r4, #124]
	mov	lr, pc
	bx	ip
	mov	r3, #16
	strh	r3, [r4, #52]	@ movhi   ;; CYGNUS LOCAL nickc
	strh	r3, [r4, #60]	@ movhi   ;; CYGNUS LOCAL nickc
	ldmfd	sp!, {r4, r5, lr}
	bx	lr
	.align	0
op_0xd8__FP16_z80_cpu_context:
	@ args = 0, pretend = 0, frame = 0
	@ frame_needed = 0, current_function_anonymous_args = 0
	stmfd	sp!, {r4, r5, lr}
	mov	r4, r0
	ldrb	ip, [r4, #0]
	tst	ip, #1
	beq	.L961
	ldrh	r1, [r4, #48]	@ movhi
	add	r3, r1, #1
	strh	r3, [r4, #48]	@ movhi   ;; CYGNUS LOCAL nickc
	mov	r1, r1, asl #16
	mov	r1, r1, lsr #16
	mov	r2, #0
	ldr	r3, [r4, #120]
	ldr	ip, [r4, #116]
	mov	lr, pc
	bx	ip
	and	r0, r0, #255
	bic	r3, r5, #255
	orr	r5, r0, r3
	ldrh	r1, [r4, #48]	@ movhi
	add	r3, r1, #1
	strh	r3, [r4, #48]	@ movhi   ;; CYGNUS LOCAL nickc
	mov	r1, r1, asl #16
	mov	r0, r4
	mov	r1, r1, lsr #16
	mov	r2, #0
	ldr	r3, [r4, #120]
	ldr	ip, [r4, #116]
	mov	lr, pc
	bx	ip
	and	r0, r0, #255
	bic	r3, r5, #65280
	orr	r5, r3, r0, asl #8
	strh	r5, [r4, #52]	@ movhi   ;; CYGNUS LOCAL nickc
	strh	r5, [r4, #60]	@ movhi   ;; CYGNUS LOCAL nickc
.L961:
	ldmfd	sp!, {r4, r5, lr}
	bx	lr
	.align	0
op_0xd9__FP16_z80_cpu_context:
	@ args = 0, pretend = 0, frame = 4
	@ frame_needed = 0, current_function_anonymous_args = 0
	sub	sp, sp, #4
	ldrb	r3, [r0, #4]	@ zero_extendqisi2
	ldrb	r1, [r0, #5]	@ zero_extendqisi2
	orr	r3, r3, r1, asl #8
	ldrb	r1, [r0, #20]	@ zero_extendqisi2
	ldrb	r2, [r0, #21]	@ zero_extendqisi2
	orr	r2, r1, r2, asl #8
	strh	r2, [r0, #4]	@ movhi   ;; CYGNUS LOCAL nickc
	strh	r3, [r0, #20]	@ movhi   ;; CYGNUS LOCAL nickc
	ldrb	r3, [r0, #8]	@ zero_extendqisi2
	ldrb	r1, [r0, #9]	@ zero_extendqisi2
	orr	r3, r3, r1, asl #8
	ldrb	r1, [r0, #24]	@ zero_extendqisi2
	ldrb	r2, [r0, #25]	@ zero_extendqisi2
	orr	r2, r1, r2, asl #8
	strh	r2, [r0, #8]	@ movhi   ;; CYGNUS LOCAL nickc
	strh	r3, [r0, #24]	@ movhi   ;; CYGNUS LOCAL nickc
	ldrb	r3, [r0, #12]	@ zero_extendqisi2
	ldrb	r1, [r0, #13]	@ zero_extendqisi2
	orr	r3, r3, r1, asl #8
	ldrb	r1, [r0, #28]	@ zero_extendqisi2
	ldrb	r2, [r0, #29]	@ zero_extendqisi2
	orr	r2, r1, r2, asl #8
	strh	r2, [r0, #12]	@ movhi   ;; CYGNUS LOCAL nickc
	strh	r3, [r0, #28]	@ movhi   ;; CYGNUS LOCAL nickc
	add	sp, sp, #4
	bx	lr
	.align	0
op_0xda__FP16_z80_cpu_context:
	@ args = 0, pretend = 0, frame = 0
	@ frame_needed = 0, current_function_anonymous_args = 0
	stmfd	sp!, {r4, r5, r6, lr}
	mov	r4, r0
	ldrb	r3, [r4, #88]	@ zero_extendqisi2
	cmp	r3, #0
	beq	.L968
	ldr	r1, [r4, #136]
	ldr	ip, [r4, #132]
	mov	lr, pc
	bx	ip
	b	.L969
.L968:
	ldrh	r1, [r4, #52]	@ movhi
	add	r3, r1, #1
	strh	r3, [r4, #52]	@ movhi   ;; CYGNUS LOCAL nickc
	mov	r1, r1, asl #16
	mov	r0, r4
	mov	r1, r1, lsr #16
	mov	r2, #0
	ldr	r3, [r4, #120]
	ldr	ip, [r4, #116]
	mov	lr, pc
	bx	ip
.L969:
	strb	r0, [r4, #140]
	ldrb	r3, [r4, #88]	@ zero_extendqisi2
	cmp	r3, #0
	beq	.L970
	mov	r0, r4
	ldr	r1, [r4, #136]
	ldr	ip, [r4, #132]
	mov	lr, pc
	bx	ip
	b	.L971
.L970:
	ldrh	r1, [r4, #52]	@ movhi
	add	r3, r1, #1
	strh	r3, [r4, #52]	@ movhi   ;; CYGNUS LOCAL nickc
	mov	r1, r1, asl #16
	mov	r0, r4
	mov	r1, r1, lsr #16
	mov	r2, #0
	ldr	r3, [r4, #120]
	ldr	ip, [r4, #116]
	mov	lr, pc
	bx	ip
.L971:
	strb	r0, [r4, #141]
	ldrb	r5, [r4, #0]
	tst	r5, #1
	ldrneh	r3, [r4, #140]	@ movhi
	strneh	r3, [r4, #52]	@ movhi   ;; CYGNUS LOCAL nickc
	strneh	r3, [r4, #60]	@ movhi   ;; CYGNUS LOCAL nickc
.L972:
	ldreqb	r5, [r4, #140]	@ zero_extendqisi2
	ldreqb	r6, [r4, #141]	@ zero_extendqisi2
	orreq	r6, r5, r6, asl #8
	streqh	r6, [r4, #60]	@ movhi   ;; CYGNUS LOCAL nickc
.L967:
	ldmfd	sp!, {r4, r5, r6, lr}
	bx	lr
	.align	0
op_0xdb__FP16_z80_cpu_context:
	@ args = 0, pretend = 0, frame = 0
	@ frame_needed = 0, current_function_anonymous_args = 0
	stmfd	sp!, {r4, r5, lr}
	mov	r4, r0
	ldrb	r5, [r4, #1]	@ zero_extendqisi2
	mov	r5, r5, asl #8
	ldrb	r3, [r4, #88]	@ zero_extendqisi2
	cmp	r3, #0
	beq	.L976
	ldr	r1, [r4, #136]
	ldr	ip, [r4, #132]
	mov	lr, pc
	bx	ip
	b	.L979
.L976:
	ldrh	r1, [r4, #52]	@ movhi
	add	r3, r1, #1
	strh	r3, [r4, #52]	@ movhi   ;; CYGNUS LOCAL nickc
	mov	r1, r1, asl #16
	mov	r0, r4
	mov	r1, r1, lsr #16
	mov	r2, #0
	ldr	r3, [r4, #120]
	ldr	ip, [r4, #116]
	mov	lr, pc
	bx	ip
.L979:
	and	r0, r0, #255
	add	r0, r0, r5
	strh	r0, [r4, #140]	@ movhi   ;; CYGNUS LOCAL nickc
	ldrb	r3, [r4, #140]	@ zero_extendqisi2
	ldrb	r1, [r4, #141]	@ zero_extendqisi2
	mov	r0, r4
	orr	r1, r3, r1, asl #8
	ldr	r2, [r4, #104]
	ldr	ip, [r4, #100]
	mov	lr, pc
	bx	ip
	strb	r0, [r4, #1]
	ldrh	r3, [r4, #140]	@ movhi
	add	r3, r3, #1
	strh	r3, [r4, #60]	@ movhi   ;; CYGNUS LOCAL nickc
	ldmfd	sp!, {r4, r5, lr}
	bx	lr
	.align	0
op_0xdc__FP16_z80_cpu_context:
	@ args = 0, pretend = 0, frame = 0
	@ frame_needed = 0, current_function_anonymous_args = 0
	stmfd	sp!, {r4, r5, r6, r7, lr}
	mov	r4, r0
	ldrb	r3, [r4, #88]	@ zero_extendqisi2
	cmp	r3, #0
	beq	.L981
	ldr	r1, [r4, #136]
	ldr	ip, [r4, #132]
	mov	lr, pc
	bx	ip
	b	.L982
.L981:
	ldrh	r1, [r4, #52]	@ movhi
	add	r3, r1, #1
	strh	r3, [r4, #52]	@ movhi   ;; CYGNUS LOCAL nickc
	mov	r1, r1, asl #16
	mov	r0, r4
	mov	r1, r1, lsr #16
	mov	r2, #0
	ldr	r3, [r4, #120]
	ldr	ip, [r4, #116]
	mov	lr, pc
	bx	ip
.L982:
	strb	r0, [r4, #140]
	ldrb	r3, [r4, #88]	@ zero_extendqisi2
	cmp	r3, #0
	beq	.L983
	mov	r0, r4
	ldr	r1, [r4, #136]
	ldr	ip, [r4, #132]
	mov	lr, pc
	bx	ip
	b	.L984
.L983:
	ldrh	r1, [r4, #52]	@ movhi
	add	r3, r1, #1
	strh	r3, [r4, #52]	@ movhi   ;; CYGNUS LOCAL nickc
	mov	r1, r1, asl #16
	mov	r0, r4
	mov	r1, r1, lsr #16
	mov	r2, #0
	ldr	r3, [r4, #120]
	ldr	ip, [r4, #116]
	mov	lr, pc
	bx	ip
.L984:
	strb	r0, [r4, #141]
	ldrb	r6, [r4, #0]
	tst	r6, #1
	beq	.L985
	ldrh	r3, [r4, #52]	@ movhi
	mov	r3, r3, asl #16
	orr	r3, r3, r5, lsr #16
	mov	r5, r3, ror #16
	ldrh	r1, [r4, #48]	@ movhi
	sub	r1, r1, #1
	strh	r1, [r4, #48]	@ movhi   ;; CYGNUS LOCAL nickc
	mov	r1, r1, asl #16
	mov	r2, r5, lsr #8
	mov	r0, r4
	mov	r1, r1, lsr #16
	and	r2, r2, #255
	ldr	r3, [r4, #128]
	ldr	ip, [r4, #124]
	mov	lr, pc
	bx	ip
	ldrh	r1, [r4, #48]	@ movhi
	sub	r1, r1, #1
	strh	r1, [r4, #48]	@ movhi   ;; CYGNUS LOCAL nickc
	mov	r1, r1, asl #16
	and	r2, r5, #255
	mov	r0, r4
	mov	r1, r1, lsr #16
	ldr	r3, [r4, #128]
	ldr	ip, [r4, #124]
	mov	lr, pc
	bx	ip
	ldrh	r3, [r4, #140]	@ movhi
	strh	r3, [r4, #52]	@ movhi   ;; CYGNUS LOCAL nickc
	strh	r3, [r4, #60]	@ movhi   ;; CYGNUS LOCAL nickc
	b	.L980
.L985:
	ldrb	r6, [r4, #140]	@ zero_extendqisi2
	ldrb	r7, [r4, #141]	@ zero_extendqisi2
	orr	r7, r6, r7, asl #8
	strh	r7, [r4, #60]	@ movhi   ;; CYGNUS LOCAL nickc
.L980:
	ldmfd	sp!, {r4, r5, r6, r7, lr}
	bx	lr
	.align	0
op_p_DD__FP16_z80_cpu_context:
	@ args = 0, pretend = 0, frame = 0
	@ frame_needed = 0, current_function_anonymous_args = 0
	mov	r3, #221
	strb	r3, [r0, #89]
	mov	r3, #1
	str	r3, [r0, #80]
	bx	lr
	.align	0
op_0xde__FP16_z80_cpu_context:
	@ args = 0, pretend = 0, frame = 0
	@ frame_needed = 0, current_function_anonymous_args = 0
	stmfd	sp!, {r4, lr}
	mov	r4, r0
	ldrb	r3, [r4, #88]	@ zero_extendqisi2
	cmp	r3, #0
	beq	.L991
	ldr	r1, [r4, #136]
	ldr	ip, [r4, #132]
	mov	lr, pc
	bx	ip
	b	.L992
.L991:
	ldrh	r1, [r4, #52]	@ movhi
	add	r3, r1, #1
	strh	r3, [r4, #52]	@ movhi   ;; CYGNUS LOCAL nickc
	mov	r1, r1, asl #16
	mov	r0, r4
	mov	r1, r1, lsr #16
	mov	r2, #0
	ldr	r3, [r4, #120]
	ldr	ip, [r4, #116]
	mov	lr, pc
	bx	ip
.L992:
	strb	r0, [r4, #148]
	ldrb	r2, [r4, #1]	@ zero_extendqisi2
	ldrb	r3, [r4, #148]	@ zero_extendqisi2
	rsb	r2, r3, r2
	ldrb	r3, [r4, #0]
	and	r3, r3, #1
	rsb	r2, r3, r2
	mov	r2, r2, asl #16
	ldrb	r1, [r4, #1]
	and	r1, r1, #136
	and	r3, r0, #136
	mov	r3, r3, lsr #2
	orr	r3, r3, r1, lsr #3
	mov	r0, r2, lsr #16
	and	r2, r2, #8912896
	orr	r3, r3, r2, lsr #17
	strb	r0, [r4, #1]
	ldr	r1, .L997
	and	r2, r3, #7
	ldrb	ip, [r1, r2]	@ zero_extendqisi2
	ldr	r2, .L997+4
	ldrb	r1, [r2, r3, lsr #4]	@ zero_extendqisi2
	ldr	r2, .L997+8
	ldrb	r3, [r4, #1]	@ zero_extendqisi2
	ldrb	r2, [r2, r3]	@ zero_extendqisi2
	tst	r0, #256
	beq	.L993
	orr	r3, r1, #3
	b	.L996
.L998:
	.align	0
.L997:
	.word	halfcarry_sub_table
	.word	overflow_sub_table
	.word	sz53_table
.L993:
	orr	r3, r1, #2
.L996:
	orr	r3, ip, r3
	orr	r3, r3, r2
	strb	r3, [r4, #0]
	ldmfd	sp!, {r4, lr}
	bx	lr
	.align	0
op_0xdf__FP16_z80_cpu_context:
	@ args = 0, pretend = 0, frame = 0
	@ frame_needed = 0, current_function_anonymous_args = 0
	stmfd	sp!, {r4, r5, lr}
	mov	r4, r0
	ldrh	r3, [r4, #52]	@ movhi
	mov	r3, r3, asl #16
	orr	r3, r3, r5, lsr #16
	mov	r5, r3, ror #16
	ldrh	r1, [r4, #48]	@ movhi
	sub	r1, r1, #1
	strh	r1, [r4, #48]	@ movhi   ;; CYGNUS LOCAL nickc
	mov	r1, r1, asl #16
	mov	r2, r5, lsr #8
	mov	r1, r1, lsr #16
	and	r2, r2, #255
	ldr	r3, [r4, #128]
	ldr	ip, [r4, #124]
	mov	lr, pc
	bx	ip
	ldrh	r1, [r4, #48]	@ movhi
	sub	r1, r1, #1
	strh	r1, [r4, #48]	@ movhi   ;; CYGNUS LOCAL nickc
	mov	r1, r1, asl #16
	and	r2, r5, #255
	mov	r0, r4
	mov	r1, r1, lsr #16
	ldr	r3, [r4, #128]
	ldr	ip, [r4, #124]
	mov	lr, pc
	bx	ip
	mov	r3, #24
	strh	r3, [r4, #52]	@ movhi   ;; CYGNUS LOCAL nickc
	strh	r3, [r4, #60]	@ movhi   ;; CYGNUS LOCAL nickc
	ldmfd	sp!, {r4, r5, lr}
	bx	lr
	.align	0
op_0xe0__FP16_z80_cpu_context:
	@ args = 0, pretend = 0, frame = 0
	@ frame_needed = 0, current_function_anonymous_args = 0
	stmfd	sp!, {r4, r5, r6, lr}
	mov	r4, r0
	ldrb	r3, [r4, #0]
	ands	r6, r3, #4
	bne	.L1001
	ldrh	r1, [r4, #48]	@ movhi
	add	r3, r1, #1
	strh	r3, [r4, #48]	@ movhi   ;; CYGNUS LOCAL nickc
	mov	r1, r1, asl #16
	mov	r1, r1, lsr #16
	mov	r2, r6
	ldr	r3, [r4, #120]
	ldr	ip, [r4, #116]
	mov	lr, pc
	bx	ip
	and	r0, r0, #255
	bic	r3, r5, #255
	orr	r5, r0, r3
	ldrh	r1, [r4, #48]	@ movhi
	add	r3, r1, #1
	strh	r3, [r4, #48]	@ movhi   ;; CYGNUS LOCAL nickc
	mov	r1, r1, asl #16
	mov	r0, r4
	mov	r1, r1, lsr #16
	mov	r2, r6
	ldr	r3, [r4, #120]
	ldr	ip, [r4, #116]
	mov	lr, pc
	bx	ip
	and	r0, r0, #255
	bic	r3, r5, #65280
	orr	r5, r3, r0, asl #8
	strh	r5, [r4, #52]	@ movhi   ;; CYGNUS LOCAL nickc
	strh	r5, [r4, #60]	@ movhi   ;; CYGNUS LOCAL nickc
.L1001:
	ldmfd	sp!, {r4, r5, r6, lr}
	bx	lr
	.align	0
op_0xe1__FP16_z80_cpu_context:
	@ args = 0, pretend = 0, frame = 0
	@ frame_needed = 0, current_function_anonymous_args = 0
	stmfd	sp!, {r4, r5, lr}
	mov	r4, r0
	ldrh	r1, [r4, #48]	@ movhi
	add	r3, r1, #1
	strh	r3, [r4, #48]	@ movhi   ;; CYGNUS LOCAL nickc
	mov	r1, r1, asl #16
	mov	r1, r1, lsr #16
	mov	r2, #0
	ldr	r3, [r4, #120]
	ldr	ip, [r4, #116]
	mov	lr, pc
	bx	ip
	and	r0, r0, #255
	bic	r3, r5, #255
	orr	r5, r0, r3
	ldrh	r1, [r4, #48]	@ movhi
	add	r3, r1, #1
	strh	r3, [r4, #48]	@ movhi   ;; CYGNUS LOCAL nickc
	mov	r1, r1, asl #16
	mov	r0, r4
	mov	r1, r1, lsr #16
	mov	r2, #0
	ldr	r3, [r4, #120]
	ldr	ip, [r4, #116]
	mov	lr, pc
	bx	ip
	and	r0, r0, #255
	bic	r3, r5, #65280
	orr	r5, r3, r0, asl #8
	strh	r5, [r4, #12]	@ movhi   ;; CYGNUS LOCAL nickc
	ldmfd	sp!, {r4, r5, lr}
	bx	lr
	.align	0
op_0xe2__FP16_z80_cpu_context:
	@ args = 0, pretend = 0, frame = 0
	@ frame_needed = 0, current_function_anonymous_args = 0
	stmfd	sp!, {r4, r5, r6, lr}
	mov	r4, r0
	ldrb	r3, [r4, #88]	@ zero_extendqisi2
	cmp	r3, #0
	beq	.L1008
	ldr	r1, [r4, #136]
	ldr	ip, [r4, #132]
	mov	lr, pc
	bx	ip
	b	.L1009
.L1008:
	ldrh	r1, [r4, #52]	@ movhi
	add	r3, r1, #1
	strh	r3, [r4, #52]	@ movhi   ;; CYGNUS LOCAL nickc
	mov	r1, r1, asl #16
	mov	r0, r4
	mov	r1, r1, lsr #16
	mov	r2, #0
	ldr	r3, [r4, #120]
	ldr	ip, [r4, #116]
	mov	lr, pc
	bx	ip
.L1009:
	strb	r0, [r4, #140]
	ldrb	r3, [r4, #88]	@ zero_extendqisi2
	cmp	r3, #0
	beq	.L1010
	mov	r0, r4
	ldr	r1, [r4, #136]
	ldr	ip, [r4, #132]
	mov	lr, pc
	bx	ip
	b	.L1011
.L1010:
	ldrh	r1, [r4, #52]	@ movhi
	add	r3, r1, #1
	strh	r3, [r4, #52]	@ movhi   ;; CYGNUS LOCAL nickc
	mov	r1, r1, asl #16
	mov	r0, r4
	mov	r1, r1, lsr #16
	mov	r2, #0
	ldr	r3, [r4, #120]
	ldr	ip, [r4, #116]
	mov	lr, pc
	bx	ip
.L1011:
	strb	r0, [r4, #141]
	ldrb	r5, [r4, #0]
	tst	r5, #4
	ldreqh	r3, [r4, #140]	@ movhi
	streqh	r3, [r4, #52]	@ movhi   ;; CYGNUS LOCAL nickc
	streqh	r3, [r4, #60]	@ movhi   ;; CYGNUS LOCAL nickc
.L1012:
	ldrneb	r5, [r4, #140]	@ zero_extendqisi2
	ldrneb	r6, [r4, #141]	@ zero_extendqisi2
	orrne	r6, r5, r6, asl #8
	strneh	r6, [r4, #60]	@ movhi   ;; CYGNUS LOCAL nickc
.L1007:
	ldmfd	sp!, {r4, r5, r6, lr}
	bx	lr
	.align	0
op_0xe3__FP16_z80_cpu_context:
	@ args = 0, pretend = 0, frame = 0
	@ frame_needed = 0, current_function_anonymous_args = 0
	stmfd	sp!, {r4, r5, r6, r7, lr}
	mov	r4, r0
	add	r5, r4, #48
	ldrb	r3, [r4, #48]	@ zero_extendqisi2
	ldrb	r1, [r5, #1]	@ zero_extendqisi2
	orr	r1, r3, r1, asl #8
	mov	r2, #0
	ldr	r3, [r4, #120]
	ldr	ip, [r4, #116]
	mov	lr, pc
	bx	ip
	strb	r0, [r4, #140]
	ldrh	r1, [r4, #48]	@ movhi
	add	r1, r1, #1
	mov	r1, r1, asl #16
	mov	r0, r4
	mov	r1, r1, lsr #16
	mov	r2, #0
	ldr	r3, [r4, #120]
	ldr	ip, [r4, #116]
	mov	lr, pc
	bx	ip
	strb	r0, [r4, #141]
	ldrb	r3, [r4, #140]	@ zero_extendqisi2
	ldrb	r2, [r4, #141]	@ zero_extendqisi2
	orr	r3, r3, r2, asl #8
	ldrb	r6, [r4, #12]	@ zero_extendqisi2
	ldrb	r7, [r4, #13]	@ zero_extendqisi2
	orr	r7, r6, r7, asl #8
	strh	r7, [r4, #140]	@ movhi   ;; CYGNUS LOCAL nickc
	strh	r3, [r4, #12]	@ movhi   ;; CYGNUS LOCAL nickc
	strh	r3, [r4, #60]	@ movhi   ;; CYGNUS LOCAL nickc
	ldrb	r3, [r4, #48]	@ zero_extendqisi2
	ldrb	r1, [r5, #1]	@ zero_extendqisi2
	mov	r0, r4
	orr	r1, r3, r1, asl #8
	ldrb	r2, [r4, #140]	@ zero_extendqisi2
	ldr	r3, [r4, #128]
	ldr	ip, [r4, #124]
	mov	lr, pc
	bx	ip
	ldrh	r1, [r4, #48]	@ movhi
	add	r1, r1, #1
	mov	r1, r1, asl #16
	mov	r0, r4
	mov	r1, r1, lsr #16
	ldrb	r2, [r4, #141]	@ zero_extendqisi2
	ldr	r3, [r4, #128]
	ldr	ip, [r4, #124]
	mov	lr, pc
	bx	ip
	ldmfd	sp!, {r4, r5, r6, r7, lr}
	bx	lr
	.align	0
op_0xe4__FP16_z80_cpu_context:
	@ args = 0, pretend = 0, frame = 0
	@ frame_needed = 0, current_function_anonymous_args = 0
	stmfd	sp!, {r4, r5, r6, r7, lr}
	mov	r4, r0
	ldrb	r3, [r4, #88]	@ zero_extendqisi2
	cmp	r3, #0
	beq	.L1018
	ldr	r1, [r4, #136]
	ldr	ip, [r4, #132]
	mov	lr, pc
	bx	ip
	b	.L1019
.L1018:
	ldrh	r1, [r4, #52]	@ movhi
	add	r3, r1, #1
	strh	r3, [r4, #52]	@ movhi   ;; CYGNUS LOCAL nickc
	mov	r1, r1, asl #16
	mov	r0, r4
	mov	r1, r1, lsr #16
	mov	r2, #0
	ldr	r3, [r4, #120]
	ldr	ip, [r4, #116]
	mov	lr, pc
	bx	ip
.L1019:
	strb	r0, [r4, #140]
	ldrb	r3, [r4, #88]	@ zero_extendqisi2
	cmp	r3, #0
	beq	.L1020
	mov	r0, r4
	ldr	r1, [r4, #136]
	ldr	ip, [r4, #132]
	mov	lr, pc
	bx	ip
	b	.L1021
.L1020:
	ldrh	r1, [r4, #52]	@ movhi
	add	r3, r1, #1
	strh	r3, [r4, #52]	@ movhi   ;; CYGNUS LOCAL nickc
	mov	r1, r1, asl #16
	mov	r0, r4
	mov	r1, r1, lsr #16
	mov	r2, #0
	ldr	r3, [r4, #120]
	ldr	ip, [r4, #116]
	mov	lr, pc
	bx	ip
.L1021:
	strb	r0, [r4, #141]
	ldrb	r6, [r4, #0]
	tst	r6, #4
	bne	.L1022
	ldrh	r3, [r4, #52]	@ movhi
	mov	r3, r3, asl #16
	orr	r3, r3, r5, lsr #16
	mov	r5, r3, ror #16
	ldrh	r1, [r4, #48]	@ movhi
	sub	r1, r1, #1
	strh	r1, [r4, #48]	@ movhi   ;; CYGNUS LOCAL nickc
	mov	r1, r1, asl #16
	mov	r2, r5, lsr #8
	mov	r0, r4
	mov	r1, r1, lsr #16
	and	r2, r2, #255
	ldr	r3, [r4, #128]
	ldr	ip, [r4, #124]
	mov	lr, pc
	bx	ip
	ldrh	r1, [r4, #48]	@ movhi
	sub	r1, r1, #1
	strh	r1, [r4, #48]	@ movhi   ;; CYGNUS LOCAL nickc
	mov	r1, r1, asl #16
	and	r2, r5, #255
	mov	r0, r4
	mov	r1, r1, lsr #16
	ldr	r3, [r4, #128]
	ldr	ip, [r4, #124]
	mov	lr, pc
	bx	ip
	ldrh	r3, [r4, #140]	@ movhi
	strh	r3, [r4, #52]	@ movhi   ;; CYGNUS LOCAL nickc
	strh	r3, [r4, #60]	@ movhi   ;; CYGNUS LOCAL nickc
	b	.L1017
.L1022:
	ldrb	r6, [r4, #140]	@ zero_extendqisi2
	ldrb	r7, [r4, #141]	@ zero_extendqisi2
	orr	r7, r6, r7, asl #8
	strh	r7, [r4, #60]	@ movhi   ;; CYGNUS LOCAL nickc
.L1017:
	ldmfd	sp!, {r4, r5, r6, r7, lr}
	bx	lr
	.align	0
op_0xe5__FP16_z80_cpu_context:
	@ args = 0, pretend = 0, frame = 0
	@ frame_needed = 0, current_function_anonymous_args = 0
	stmfd	sp!, {r4, r5, lr}
	mov	r4, r0
	ldrh	r3, [r4, #12]	@ movhi
	mov	r3, r3, asl #16
	orr	r3, r3, r5, lsr #16
	mov	r5, r3, ror #16
	ldrh	r1, [r4, #48]	@ movhi
	sub	r1, r1, #1
	strh	r1, [r4, #48]	@ movhi   ;; CYGNUS LOCAL nickc
	mov	r1, r1, asl #16
	mov	r2, r5, lsr #8
	mov	r1, r1, lsr #16
	and	r2, r2, #255
	ldr	r3, [r4, #128]
	ldr	ip, [r4, #124]
	mov	lr, pc
	bx	ip
	ldrh	r1, [r4, #48]	@ movhi
	sub	r1, r1, #1
	strh	r1, [r4, #48]	@ movhi   ;; CYGNUS LOCAL nickc
	mov	r1, r1, asl #16
	and	r2, r5, #255
	mov	r0, r4
	mov	r1, r1, lsr #16
	ldr	r3, [r4, #128]
	ldr	ip, [r4, #124]
	mov	lr, pc
	bx	ip
	ldmfd	sp!, {r4, r5, lr}
	bx	lr
	.align	0
op_0xe6__FP16_z80_cpu_context:
	@ args = 0, pretend = 0, frame = 0
	@ frame_needed = 0, current_function_anonymous_args = 0
	stmfd	sp!, {r4, lr}
	mov	r4, r0
	ldrb	r3, [r4, #88]	@ zero_extendqisi2
	cmp	r3, #0
	beq	.L1028
	ldr	r1, [r4, #136]
	ldr	ip, [r4, #132]
	mov	lr, pc
	bx	ip
	b	.L1029
.L1028:
	ldrh	r1, [r4, #52]	@ movhi
	add	r3, r1, #1
	strh	r3, [r4, #52]	@ movhi   ;; CYGNUS LOCAL nickc
	mov	r1, r1, asl #16
	mov	r0, r4
	mov	r1, r1, lsr #16
	mov	r2, #0
	ldr	r3, [r4, #120]
	ldr	ip, [r4, #116]
	mov	lr, pc
	bx	ip
.L1029:
	strb	r0, [r4, #148]
	ldrb	r3, [r4, #1]
	and	r3, r3, r0
	strb	r3, [r4, #1]
	ldr	r2, .L1032
	ldrb	r3, [r4, #1]	@ zero_extendqisi2
	ldrb	r3, [r2, r3]
	orr	r3, r3, #16
	strb	r3, [r4, #0]
	b	.L1031
.L1033:
	.align	0
.L1032:
	.word	sz53p_table
.L1031:
	ldmfd	sp!, {r4, lr}
	bx	lr
	.align	0
op_0xe7__FP16_z80_cpu_context:
	@ args = 0, pretend = 0, frame = 0
	@ frame_needed = 0, current_function_anonymous_args = 0
	stmfd	sp!, {r4, r5, lr}
	mov	r4, r0
	ldrh	r3, [r4, #52]	@ movhi
	mov	r3, r3, asl #16
	orr	r3, r3, r5, lsr #16
	mov	r5, r3, ror #16
	ldrh	r1, [r4, #48]	@ movhi
	sub	r1, r1, #1
	strh	r1, [r4, #48]	@ movhi   ;; CYGNUS LOCAL nickc
	mov	r1, r1, asl #16
	mov	r2, r5, lsr #8
	mov	r1, r1, lsr #16
	and	r2, r2, #255
	ldr	r3, [r4, #128]
	ldr	ip, [r4, #124]
	mov	lr, pc
	bx	ip
	ldrh	r1, [r4, #48]	@ movhi
	sub	r1, r1, #1
	strh	r1, [r4, #48]	@ movhi   ;; CYGNUS LOCAL nickc
	mov	r1, r1, asl #16
	and	r2, r5, #255
	mov	r0, r4
	mov	r1, r1, lsr #16
	ldr	r3, [r4, #128]
	ldr	ip, [r4, #124]
	mov	lr, pc
	bx	ip
	mov	r3, #32
	strh	r3, [r4, #52]	@ movhi   ;; CYGNUS LOCAL nickc
	strh	r3, [r4, #60]	@ movhi   ;; CYGNUS LOCAL nickc
	ldmfd	sp!, {r4, r5, lr}
	bx	lr
	.align	0
op_0xe8__FP16_z80_cpu_context:
	@ args = 0, pretend = 0, frame = 0
	@ frame_needed = 0, current_function_anonymous_args = 0
	stmfd	sp!, {r4, r5, lr}
	mov	r4, r0
	ldrb	ip, [r4, #0]
	tst	ip, #4
	beq	.L1036
	ldrh	r1, [r4, #48]	@ movhi
	add	r3, r1, #1
	strh	r3, [r4, #48]	@ movhi   ;; CYGNUS LOCAL nickc
	mov	r1, r1, asl #16
	mov	r1, r1, lsr #16
	mov	r2, #0
	ldr	r3, [r4, #120]
	ldr	ip, [r4, #116]
	mov	lr, pc
	bx	ip
	and	r0, r0, #255
	bic	r3, r5, #255
	orr	r5, r0, r3
	ldrh	r1, [r4, #48]	@ movhi
	add	r3, r1, #1
	strh	r3, [r4, #48]	@ movhi   ;; CYGNUS LOCAL nickc
	mov	r1, r1, asl #16
	mov	r0, r4
	mov	r1, r1, lsr #16
	mov	r2, #0
	ldr	r3, [r4, #120]
	ldr	ip, [r4, #116]
	mov	lr, pc
	bx	ip
	and	r0, r0, #255
	bic	r3, r5, #65280
	orr	r5, r3, r0, asl #8
	strh	r5, [r4, #52]	@ movhi   ;; CYGNUS LOCAL nickc
	strh	r5, [r4, #60]	@ movhi   ;; CYGNUS LOCAL nickc
.L1036:
	ldmfd	sp!, {r4, r5, lr}
	bx	lr
	.align	0
op_0xe9__FP16_z80_cpu_context:
	@ args = 0, pretend = 0, frame = 0
	@ frame_needed = 0, current_function_anonymous_args = 0
	ldrb	r2, [r0, #12]	@ zero_extendqisi2
	ldrb	r3, [r0, #13]	@ zero_extendqisi2
	orr	r3, r2, r3, asl #8
	strh	r3, [r0, #52]	@ movhi   ;; CYGNUS LOCAL nickc
	bx	lr
	.align	0
op_0xea__FP16_z80_cpu_context:
	@ args = 0, pretend = 0, frame = 0
	@ frame_needed = 0, current_function_anonymous_args = 0
	stmfd	sp!, {r4, r5, r6, lr}
	mov	r4, r0
	ldrb	r3, [r4, #88]	@ zero_extendqisi2
	cmp	r3, #0
	beq	.L1043
	ldr	r1, [r4, #136]
	ldr	ip, [r4, #132]
	mov	lr, pc
	bx	ip
	b	.L1044
.L1043:
	ldrh	r1, [r4, #52]	@ movhi
	add	r3, r1, #1
	strh	r3, [r4, #52]	@ movhi   ;; CYGNUS LOCAL nickc
	mov	r1, r1, asl #16
	mov	r0, r4
	mov	r1, r1, lsr #16
	mov	r2, #0
	ldr	r3, [r4, #120]
	ldr	ip, [r4, #116]
	mov	lr, pc
	bx	ip
.L1044:
	strb	r0, [r4, #140]
	ldrb	r3, [r4, #88]	@ zero_extendqisi2
	cmp	r3, #0
	beq	.L1045
	mov	r0, r4
	ldr	r1, [r4, #136]
	ldr	ip, [r4, #132]
	mov	lr, pc
	bx	ip
	b	.L1046
.L1045:
	ldrh	r1, [r4, #52]	@ movhi
	add	r3, r1, #1
	strh	r3, [r4, #52]	@ movhi   ;; CYGNUS LOCAL nickc
	mov	r1, r1, asl #16
	mov	r0, r4
	mov	r1, r1, lsr #16
	mov	r2, #0
	ldr	r3, [r4, #120]
	ldr	ip, [r4, #116]
	mov	lr, pc
	bx	ip
.L1046:
	strb	r0, [r4, #141]
	ldrb	r5, [r4, #0]
	tst	r5, #4
	ldrneh	r3, [r4, #140]	@ movhi
	strneh	r3, [r4, #52]	@ movhi   ;; CYGNUS LOCAL nickc
	strneh	r3, [r4, #60]	@ movhi   ;; CYGNUS LOCAL nickc
.L1047:
	ldreqb	r5, [r4, #140]	@ zero_extendqisi2
	ldreqb	r6, [r4, #141]	@ zero_extendqisi2
	orreq	r6, r5, r6, asl #8
	streqh	r6, [r4, #60]	@ movhi   ;; CYGNUS LOCAL nickc
.L1042:
	ldmfd	sp!, {r4, r5, r6, lr}
	bx	lr
	.align	0
op_0xeb__FP16_z80_cpu_context:
	@ args = 0, pretend = 0, frame = 4
	@ frame_needed = 0, current_function_anonymous_args = 0
	sub	sp, sp, #4
	ldrb	r3, [r0, #8]	@ zero_extendqisi2
	ldrb	r1, [r0, #9]	@ zero_extendqisi2
	orr	r3, r3, r1, asl #8
	ldrb	r1, [r0, #12]	@ zero_extendqisi2
	ldrb	r2, [r0, #13]	@ zero_extendqisi2
	orr	r2, r1, r2, asl #8
	strh	r2, [r0, #8]	@ movhi   ;; CYGNUS LOCAL nickc
	strh	r3, [r0, #12]	@ movhi   ;; CYGNUS LOCAL nickc
	add	sp, sp, #4
	bx	lr
	.align	0
op_0xec__FP16_z80_cpu_context:
	@ args = 0, pretend = 0, frame = 0
	@ frame_needed = 0, current_function_anonymous_args = 0
	stmfd	sp!, {r4, r5, r6, r7, lr}
	mov	r4, r0
	ldrb	r3, [r4, #88]	@ zero_extendqisi2
	cmp	r3, #0
	beq	.L1053
	ldr	r1, [r4, #136]
	ldr	ip, [r4, #132]
	mov	lr, pc
	bx	ip
	b	.L1054
.L1053:
	ldrh	r1, [r4, #52]	@ movhi
	add	r3, r1, #1
	strh	r3, [r4, #52]	@ movhi   ;; CYGNUS LOCAL nickc
	mov	r1, r1, asl #16
	mov	r0, r4
	mov	r1, r1, lsr #16
	mov	r2, #0
	ldr	r3, [r4, #120]
	ldr	ip, [r4, #116]
	mov	lr, pc
	bx	ip
.L1054:
	strb	r0, [r4, #140]
	ldrb	r3, [r4, #88]	@ zero_extendqisi2
	cmp	r3, #0
	beq	.L1055
	mov	r0, r4
	ldr	r1, [r4, #136]
	ldr	ip, [r4, #132]
	mov	lr, pc
	bx	ip
	b	.L1056
.L1055:
	ldrh	r1, [r4, #52]	@ movhi
	add	r3, r1, #1
	strh	r3, [r4, #52]	@ movhi   ;; CYGNUS LOCAL nickc
	mov	r1, r1, asl #16
	mov	r0, r4
	mov	r1, r1, lsr #16
	mov	r2, #0
	ldr	r3, [r4, #120]
	ldr	ip, [r4, #116]
	mov	lr, pc
	bx	ip
.L1056:
	strb	r0, [r4, #141]
	ldrb	r6, [r4, #0]
	tst	r6, #4
	beq	.L1057
	ldrh	r3, [r4, #52]	@ movhi
	mov	r3, r3, asl #16
	orr	r3, r3, r5, lsr #16
	mov	r5, r3, ror #16
	ldrh	r1, [r4, #48]	@ movhi
	sub	r1, r1, #1
	strh	r1, [r4, #48]	@ movhi   ;; CYGNUS LOCAL nickc
	mov	r1, r1, asl #16
	mov	r2, r5, lsr #8
	mov	r0, r4
	mov	r1, r1, lsr #16
	and	r2, r2, #255
	ldr	r3, [r4, #128]
	ldr	ip, [r4, #124]
	mov	lr, pc
	bx	ip
	ldrh	r1, [r4, #48]	@ movhi
	sub	r1, r1, #1
	strh	r1, [r4, #48]	@ movhi   ;; CYGNUS LOCAL nickc
	mov	r1, r1, asl #16
	and	r2, r5, #255
	mov	r0, r4
	mov	r1, r1, lsr #16
	ldr	r3, [r4, #128]
	ldr	ip, [r4, #124]
	mov	lr, pc
	bx	ip
	ldrh	r3, [r4, #140]	@ movhi
	strh	r3, [r4, #52]	@ movhi   ;; CYGNUS LOCAL nickc
	strh	r3, [r4, #60]	@ movhi   ;; CYGNUS LOCAL nickc
	b	.L1052
.L1057:
	ldrb	r6, [r4, #140]	@ zero_extendqisi2
	ldrb	r7, [r4, #141]	@ zero_extendqisi2
	orr	r7, r6, r7, asl #8
	strh	r7, [r4, #60]	@ movhi   ;; CYGNUS LOCAL nickc
.L1052:
	ldmfd	sp!, {r4, r5, r6, r7, lr}
	bx	lr
	.align	0
op_p_ED__FP16_z80_cpu_context:
	@ args = 0, pretend = 0, frame = 0
	@ frame_needed = 0, current_function_anonymous_args = 0
	mov	r3, #237
	strb	r3, [r0, #89]
	mov	r3, #1
	str	r3, [r0, #80]
	bx	lr
	.align	0
op_0xee__FP16_z80_cpu_context:
	@ args = 0, pretend = 0, frame = 0
	@ frame_needed = 0, current_function_anonymous_args = 0
	stmfd	sp!, {r4, lr}
	mov	r4, r0
	ldrb	r3, [r4, #88]	@ zero_extendqisi2
	cmp	r3, #0
	beq	.L1063
	ldr	r1, [r4, #136]
	ldr	ip, [r4, #132]
	mov	lr, pc
	bx	ip
	b	.L1064
.L1063:
	ldrh	r1, [r4, #52]	@ movhi
	add	r3, r1, #1
	strh	r3, [r4, #52]	@ movhi   ;; CYGNUS LOCAL nickc
	mov	r1, r1, asl #16
	mov	r0, r4
	mov	r1, r1, lsr #16
	mov	r2, #0
	ldr	r3, [r4, #120]
	ldr	ip, [r4, #116]
	mov	lr, pc
	bx	ip
.L1064:
	strb	r0, [r4, #148]
	ldrb	r3, [r4, #1]
	eor	r3, r3, r0
	strb	r3, [r4, #1]
	ldr	r2, .L1067
	ldrb	r3, [r4, #1]	@ zero_extendqisi2
	ldrb	r3, [r2, r3]
	strb	r3, [r4, #0]
	b	.L1066
.L1068:
	.align	0
.L1067:
	.word	sz53p_table
.L1066:
	ldmfd	sp!, {r4, lr}
	bx	lr
	.align	0
op_0xef__FP16_z80_cpu_context:
	@ args = 0, pretend = 0, frame = 0
	@ frame_needed = 0, current_function_anonymous_args = 0
	stmfd	sp!, {r4, r5, lr}
	mov	r4, r0
	ldrh	r3, [r4, #52]	@ movhi
	mov	r3, r3, asl #16
	orr	r3, r3, r5, lsr #16
	mov	r5, r3, ror #16
	ldrh	r1, [r4, #48]	@ movhi
	sub	r1, r1, #1
	strh	r1, [r4, #48]	@ movhi   ;; CYGNUS LOCAL nickc
	mov	r1, r1, asl #16
	mov	r2, r5, lsr #8
	mov	r1, r1, lsr #16
	and	r2, r2, #255
	ldr	r3, [r4, #128]
	ldr	ip, [r4, #124]
	mov	lr, pc
	bx	ip
	ldrh	r1, [r4, #48]	@ movhi
	sub	r1, r1, #1
	strh	r1, [r4, #48]	@ movhi   ;; CYGNUS LOCAL nickc
	mov	r1, r1, asl #16
	and	r2, r5, #255
	mov	r0, r4
	mov	r1, r1, lsr #16
	ldr	r3, [r4, #128]
	ldr	ip, [r4, #124]
	mov	lr, pc
	bx	ip
	mov	r3, #40
	strh	r3, [r4, #52]	@ movhi   ;; CYGNUS LOCAL nickc
	strh	r3, [r4, #60]	@ movhi   ;; CYGNUS LOCAL nickc
	ldmfd	sp!, {r4, r5, lr}
	bx	lr
	.align	0
op_0xf0__FP16_z80_cpu_context:
	@ args = 0, pretend = 0, frame = 0
	@ frame_needed = 0, current_function_anonymous_args = 0
	stmfd	sp!, {r4, r5, r6, lr}
	mov	r4, r0
	ldrb	r3, [r4, #0]
	ands	r6, r3, #128
	bne	.L1071
	ldrh	r1, [r4, #48]	@ movhi
	add	r3, r1, #1
	strh	r3, [r4, #48]	@ movhi   ;; CYGNUS LOCAL nickc
	mov	r1, r1, asl #16
	mov	r1, r1, lsr #16
	mov	r2, r6
	ldr	r3, [r4, #120]
	ldr	ip, [r4, #116]
	mov	lr, pc
	bx	ip
	and	r0, r0, #255
	bic	r3, r5, #255
	orr	r5, r0, r3
	ldrh	r1, [r4, #48]	@ movhi
	add	r3, r1, #1
	strh	r3, [r4, #48]	@ movhi   ;; CYGNUS LOCAL nickc
	mov	r1, r1, asl #16
	mov	r0, r4
	mov	r1, r1, lsr #16
	mov	r2, r6
	ldr	r3, [r4, #120]
	ldr	ip, [r4, #116]
	mov	lr, pc
	bx	ip
	and	r0, r0, #255
	bic	r3, r5, #65280
	orr	r5, r3, r0, asl #8
	strh	r5, [r4, #52]	@ movhi   ;; CYGNUS LOCAL nickc
	strh	r5, [r4, #60]	@ movhi   ;; CYGNUS LOCAL nickc
.L1071:
	ldmfd	sp!, {r4, r5, r6, lr}
	bx	lr
	.align	0
op_0xf1__FP16_z80_cpu_context:
	@ args = 0, pretend = 0, frame = 0
	@ frame_needed = 0, current_function_anonymous_args = 0
	stmfd	sp!, {r4, r5, lr}
	mov	r4, r0
	ldrh	r1, [r4, #48]	@ movhi
	add	r3, r1, #1
	strh	r3, [r4, #48]	@ movhi   ;; CYGNUS LOCAL nickc
	mov	r1, r1, asl #16
	mov	r1, r1, lsr #16
	mov	r2, #0
	ldr	r3, [r4, #120]
	ldr	ip, [r4, #116]
	mov	lr, pc
	bx	ip
	and	r0, r0, #255
	bic	r3, r5, #255
	orr	r5, r0, r3
	ldrh	r1, [r4, #48]	@ movhi
	add	r3, r1, #1
	strh	r3, [r4, #48]	@ movhi   ;; CYGNUS LOCAL nickc
	mov	r1, r1, asl #16
	mov	r0, r4
	mov	r1, r1, lsr #16
	mov	r2, #0
	ldr	r3, [r4, #120]
	ldr	ip, [r4, #116]
	mov	lr, pc
	bx	ip
	and	r0, r0, #255
	bic	r3, r5, #65280
	orr	r5, r3, r0, asl #8
	strh	r5, [r4, #0]	@ movhi   ;; CYGNUS LOCAL nickc
	ldmfd	sp!, {r4, r5, lr}
	bx	lr
	.align	0
op_0xf2__FP16_z80_cpu_context:
	@ args = 0, pretend = 0, frame = 0
	@ frame_needed = 0, current_function_anonymous_args = 0
	stmfd	sp!, {r4, r5, r6, lr}
	mov	r4, r0
	ldrb	r3, [r4, #88]	@ zero_extendqisi2
	cmp	r3, #0
	beq	.L1078
	ldr	r1, [r4, #136]
	ldr	ip, [r4, #132]
	mov	lr, pc
	bx	ip
	b	.L1079
.L1078:
	ldrh	r1, [r4, #52]	@ movhi
	add	r3, r1, #1
	strh	r3, [r4, #52]	@ movhi   ;; CYGNUS LOCAL nickc
	mov	r1, r1, asl #16
	mov	r0, r4
	mov	r1, r1, lsr #16
	mov	r2, #0
	ldr	r3, [r4, #120]
	ldr	ip, [r4, #116]
	mov	lr, pc
	bx	ip
.L1079:
	strb	r0, [r4, #140]
	ldrb	r3, [r4, #88]	@ zero_extendqisi2
	cmp	r3, #0
	beq	.L1080
	mov	r0, r4
	ldr	r1, [r4, #136]
	ldr	ip, [r4, #132]
	mov	lr, pc
	bx	ip
	b	.L1081
.L1080:
	ldrh	r1, [r4, #52]	@ movhi
	add	r3, r1, #1
	strh	r3, [r4, #52]	@ movhi   ;; CYGNUS LOCAL nickc
	mov	r1, r1, asl #16
	mov	r0, r4
	mov	r1, r1, lsr #16
	mov	r2, #0
	ldr	r3, [r4, #120]
	ldr	ip, [r4, #116]
	mov	lr, pc
	bx	ip
.L1081:
	strb	r0, [r4, #141]
	ldrb	r3, [r4, #0]
	tst	r3, #128
	ldreqh	r3, [r4, #140]	@ movhi
	streqh	r3, [r4, #52]	@ movhi   ;; CYGNUS LOCAL nickc
	streqh	r3, [r4, #60]	@ movhi   ;; CYGNUS LOCAL nickc
.L1082:
	ldrneb	r5, [r4, #140]	@ zero_extendqisi2
	ldrneb	r6, [r4, #141]	@ zero_extendqisi2
	orrne	r6, r5, r6, asl #8
	strneh	r6, [r4, #60]	@ movhi   ;; CYGNUS LOCAL nickc
.L1077:
	ldmfd	sp!, {r4, r5, r6, lr}
	bx	lr
	.align	0
op_0xf3__FP16_z80_cpu_context:
	@ args = 0, pretend = 0, frame = 0
	@ frame_needed = 0, current_function_anonymous_args = 0
	mov	r3, #0
	strb	r3, [r0, #57]
	strb	r3, [r0, #56]
	bx	lr
	.align	0
op_0xf4__FP16_z80_cpu_context:
	@ args = 0, pretend = 0, frame = 0
	@ frame_needed = 0, current_function_anonymous_args = 0
	stmfd	sp!, {r4, r5, r6, r7, lr}
	mov	r4, r0
	ldrb	r3, [r4, #88]	@ zero_extendqisi2
	cmp	r3, #0
	beq	.L1088
	ldr	r1, [r4, #136]
	ldr	ip, [r4, #132]
	mov	lr, pc
	bx	ip
	b	.L1089
.L1088:
	ldrh	r1, [r4, #52]	@ movhi
	add	r3, r1, #1
	strh	r3, [r4, #52]	@ movhi   ;; CYGNUS LOCAL nickc
	mov	r1, r1, asl #16
	mov	r0, r4
	mov	r1, r1, lsr #16
	mov	r2, #0
	ldr	r3, [r4, #120]
	ldr	ip, [r4, #116]
	mov	lr, pc
	bx	ip
.L1089:
	strb	r0, [r4, #140]
	ldrb	r3, [r4, #88]	@ zero_extendqisi2
	cmp	r3, #0
	beq	.L1090
	mov	r0, r4
	ldr	r1, [r4, #136]
	ldr	ip, [r4, #132]
	mov	lr, pc
	bx	ip
	b	.L1091
.L1090:
	ldrh	r1, [r4, #52]	@ movhi
	add	r3, r1, #1
	strh	r3, [r4, #52]	@ movhi   ;; CYGNUS LOCAL nickc
	mov	r1, r1, asl #16
	mov	r0, r4
	mov	r1, r1, lsr #16
	mov	r2, #0
	ldr	r3, [r4, #120]
	ldr	ip, [r4, #116]
	mov	lr, pc
	bx	ip
.L1091:
	strb	r0, [r4, #141]
	ldrb	r3, [r4, #0]
	tst	r3, #128
	bne	.L1092
	ldrh	r3, [r4, #52]	@ movhi
	mov	r3, r3, asl #16
	orr	r3, r3, r5, lsr #16
	mov	r5, r3, ror #16
	ldrh	r1, [r4, #48]	@ movhi
	sub	r1, r1, #1
	strh	r1, [r4, #48]	@ movhi   ;; CYGNUS LOCAL nickc
	mov	r1, r1, asl #16
	mov	r2, r5, lsr #8
	mov	r0, r4
	mov	r1, r1, lsr #16
	and	r2, r2, #255
	ldr	r3, [r4, #128]
	ldr	ip, [r4, #124]
	mov	lr, pc
	bx	ip
	ldrh	r1, [r4, #48]	@ movhi
	sub	r1, r1, #1
	strh	r1, [r4, #48]	@ movhi   ;; CYGNUS LOCAL nickc
	mov	r1, r1, asl #16
	and	r2, r5, #255
	mov	r0, r4
	mov	r1, r1, lsr #16
	ldr	r3, [r4, #128]
	ldr	ip, [r4, #124]
	mov	lr, pc
	bx	ip
	ldrh	r3, [r4, #140]	@ movhi
	strh	r3, [r4, #52]	@ movhi   ;; CYGNUS LOCAL nickc
	strh	r3, [r4, #60]	@ movhi   ;; CYGNUS LOCAL nickc
	b	.L1087
.L1092:
	ldrb	r6, [r4, #140]	@ zero_extendqisi2
	ldrb	r7, [r4, #141]	@ zero_extendqisi2
	orr	r7, r6, r7, asl #8
	strh	r7, [r4, #60]	@ movhi   ;; CYGNUS LOCAL nickc
.L1087:
	ldmfd	sp!, {r4, r5, r6, r7, lr}
	bx	lr
	.align	0
op_0xf5__FP16_z80_cpu_context:
	@ args = 0, pretend = 0, frame = 0
	@ frame_needed = 0, current_function_anonymous_args = 0
	stmfd	sp!, {r4, r5, lr}
	mov	r4, r0
	ldrh	r3, [r4, #0]	@ movhi
	mov	r3, r3, asl #16
	orr	r3, r3, r5, lsr #16
	mov	r5, r3, ror #16
	ldrh	r1, [r4, #48]	@ movhi
	sub	r1, r1, #1
	strh	r1, [r4, #48]	@ movhi   ;; CYGNUS LOCAL nickc
	mov	r1, r1, asl #16
	mov	r2, r5, lsr #8
	mov	r1, r1, lsr #16
	and	r2, r2, #255
	ldr	r3, [r4, #128]
	ldr	ip, [r4, #124]
	mov	lr, pc
	bx	ip
	ldrh	r1, [r4, #48]	@ movhi
	sub	r1, r1, #1
	strh	r1, [r4, #48]	@ movhi   ;; CYGNUS LOCAL nickc
	mov	r1, r1, asl #16
	and	r2, r5, #255
	mov	r0, r4
	mov	r1, r1, lsr #16
	ldr	r3, [r4, #128]
	ldr	ip, [r4, #124]
	mov	lr, pc
	bx	ip
	ldmfd	sp!, {r4, r5, lr}
	bx	lr
	.align	0
op_0xf6__FP16_z80_cpu_context:
	@ args = 0, pretend = 0, frame = 0
	@ frame_needed = 0, current_function_anonymous_args = 0
	stmfd	sp!, {r4, lr}
	mov	r4, r0
	ldrb	r3, [r4, #88]	@ zero_extendqisi2
	cmp	r3, #0
	beq	.L1098
	ldr	r1, [r4, #136]
	ldr	ip, [r4, #132]
	mov	lr, pc
	bx	ip
	b	.L1099
.L1098:
	ldrh	r1, [r4, #52]	@ movhi
	add	r3, r1, #1
	strh	r3, [r4, #52]	@ movhi   ;; CYGNUS LOCAL nickc
	mov	r1, r1, asl #16
	mov	r0, r4
	mov	r1, r1, lsr #16
	mov	r2, #0
	ldr	r3, [r4, #120]
	ldr	ip, [r4, #116]
	mov	lr, pc
	bx	ip
.L1099:
	strb	r0, [r4, #148]
	ldrb	r3, [r4, #1]
	orr	r3, r3, r0
	strb	r3, [r4, #1]
	ldr	r2, .L1102
	ldrb	r3, [r4, #1]	@ zero_extendqisi2
	ldrb	r3, [r2, r3]
	strb	r3, [r4, #0]
	b	.L1101
.L1103:
	.align	0
.L1102:
	.word	sz53p_table
.L1101:
	ldmfd	sp!, {r4, lr}
	bx	lr
	.align	0
op_0xf7__FP16_z80_cpu_context:
	@ args = 0, pretend = 0, frame = 0
	@ frame_needed = 0, current_function_anonymous_args = 0
	stmfd	sp!, {r4, r5, lr}
	mov	r4, r0
	ldrh	r3, [r4, #52]	@ movhi
	mov	r3, r3, asl #16
	orr	r3, r3, r5, lsr #16
	mov	r5, r3, ror #16
	ldrh	r1, [r4, #48]	@ movhi
	sub	r1, r1, #1
	strh	r1, [r4, #48]	@ movhi   ;; CYGNUS LOCAL nickc
	mov	r1, r1, asl #16
	mov	r2, r5, lsr #8
	mov	r1, r1, lsr #16
	and	r2, r2, #255
	ldr	r3, [r4, #128]
	ldr	ip, [r4, #124]
	mov	lr, pc
	bx	ip
	ldrh	r1, [r4, #48]	@ movhi
	sub	r1, r1, #1
	strh	r1, [r4, #48]	@ movhi   ;; CYGNUS LOCAL nickc
	mov	r1, r1, asl #16
	and	r2, r5, #255
	mov	r0, r4
	mov	r1, r1, lsr #16
	ldr	r3, [r4, #128]
	ldr	ip, [r4, #124]
	mov	lr, pc
	bx	ip
	mov	r3, #48
	strh	r3, [r4, #52]	@ movhi   ;; CYGNUS LOCAL nickc
	strh	r3, [r4, #60]	@ movhi   ;; CYGNUS LOCAL nickc
	ldmfd	sp!, {r4, r5, lr}
	bx	lr
	.align	0
op_0xf8__FP16_z80_cpu_context:
	@ args = 0, pretend = 0, frame = 0
	@ frame_needed = 0, current_function_anonymous_args = 0
	stmfd	sp!, {r4, r5, lr}
	mov	r4, r0
	ldrb	r3, [r4, #0]
	tst	r3, #128
	beq	.L1106
	ldrh	r1, [r4, #48]	@ movhi
	add	r3, r1, #1
	strh	r3, [r4, #48]	@ movhi   ;; CYGNUS LOCAL nickc
	mov	r1, r1, asl #16
	mov	r1, r1, lsr #16
	mov	r2, #0
	ldr	r3, [r4, #120]
	ldr	ip, [r4, #116]
	mov	lr, pc
	bx	ip
	and	r0, r0, #255
	bic	r3, r5, #255
	orr	r5, r0, r3
	ldrh	r1, [r4, #48]	@ movhi
	add	r3, r1, #1
	strh	r3, [r4, #48]	@ movhi   ;; CYGNUS LOCAL nickc
	mov	r1, r1, asl #16
	mov	r0, r4
	mov	r1, r1, lsr #16
	mov	r2, #0
	ldr	r3, [r4, #120]
	ldr	ip, [r4, #116]
	mov	lr, pc
	bx	ip
	and	r0, r0, #255
	bic	r3, r5, #65280
	orr	r5, r3, r0, asl #8
	strh	r5, [r4, #52]	@ movhi   ;; CYGNUS LOCAL nickc
	strh	r5, [r4, #60]	@ movhi   ;; CYGNUS LOCAL nickc
.L1106:
	ldmfd	sp!, {r4, r5, lr}
	bx	lr
	.align	0
op_0xf9__FP16_z80_cpu_context:
	@ args = 0, pretend = 0, frame = 0
	@ frame_needed = 0, current_function_anonymous_args = 0
	ldrb	r2, [r0, #12]	@ zero_extendqisi2
	ldrb	r3, [r0, #13]	@ zero_extendqisi2
	orr	r3, r2, r3, asl #8
	strh	r3, [r0, #48]	@ movhi   ;; CYGNUS LOCAL nickc
	bx	lr
	.align	0
op_0xfa__FP16_z80_cpu_context:
	@ args = 0, pretend = 0, frame = 0
	@ frame_needed = 0, current_function_anonymous_args = 0
	stmfd	sp!, {r4, r5, r6, lr}
	mov	r4, r0
	ldrb	r3, [r4, #88]	@ zero_extendqisi2
	cmp	r3, #0
	beq	.L1113
	ldr	r1, [r4, #136]
	ldr	ip, [r4, #132]
	mov	lr, pc
	bx	ip
	b	.L1114
.L1113:
	ldrh	r1, [r4, #52]	@ movhi
	add	r3, r1, #1
	strh	r3, [r4, #52]	@ movhi   ;; CYGNUS LOCAL nickc
	mov	r1, r1, asl #16
	mov	r0, r4
	mov	r1, r1, lsr #16
	mov	r2, #0
	ldr	r3, [r4, #120]
	ldr	ip, [r4, #116]
	mov	lr, pc
	bx	ip
.L1114:
	strb	r0, [r4, #140]
	ldrb	r3, [r4, #88]	@ zero_extendqisi2
	cmp	r3, #0
	beq	.L1115
	mov	r0, r4
	ldr	r1, [r4, #136]
	ldr	ip, [r4, #132]
	mov	lr, pc
	bx	ip
	b	.L1116
.L1115:
	ldrh	r1, [r4, #52]	@ movhi
	add	r3, r1, #1
	strh	r3, [r4, #52]	@ movhi   ;; CYGNUS LOCAL nickc
	mov	r1, r1, asl #16
	mov	r0, r4
	mov	r1, r1, lsr #16
	mov	r2, #0
	ldr	r3, [r4, #120]
	ldr	ip, [r4, #116]
	mov	lr, pc
	bx	ip
.L1116:
	strb	r0, [r4, #141]
	ldrb	r3, [r4, #0]
	tst	r3, #128
	ldrneh	r3, [r4, #140]	@ movhi
	strneh	r3, [r4, #52]	@ movhi   ;; CYGNUS LOCAL nickc
	strneh	r3, [r4, #60]	@ movhi   ;; CYGNUS LOCAL nickc
.L1117:
	ldreqb	r5, [r4, #140]	@ zero_extendqisi2
	ldreqb	r6, [r4, #141]	@ zero_extendqisi2
	orreq	r6, r5, r6, asl #8
	streqh	r6, [r4, #60]	@ movhi   ;; CYGNUS LOCAL nickc
.L1112:
	ldmfd	sp!, {r4, r5, r6, lr}
	bx	lr
	.align	0
op_0xfb__FP16_z80_cpu_context:
	@ args = 0, pretend = 0, frame = 0
	@ frame_needed = 0, current_function_anonymous_args = 0
	mov	r3, #1
	strb	r3, [r0, #57]
	strb	r3, [r0, #56]
	str	r3, [r0, #80]
	bx	lr
	.align	0
op_0xfc__FP16_z80_cpu_context:
	@ args = 0, pretend = 0, frame = 0
	@ frame_needed = 0, current_function_anonymous_args = 0
	stmfd	sp!, {r4, r5, r6, r7, lr}
	mov	r4, r0
	ldrb	r3, [r4, #88]	@ zero_extendqisi2
	cmp	r3, #0
	beq	.L1123
	ldr	r1, [r4, #136]
	ldr	ip, [r4, #132]
	mov	lr, pc
	bx	ip
	b	.L1124
.L1123:
	ldrh	r1, [r4, #52]	@ movhi
	add	r3, r1, #1
	strh	r3, [r4, #52]	@ movhi   ;; CYGNUS LOCAL nickc
	mov	r1, r1, asl #16
	mov	r0, r4
	mov	r1, r1, lsr #16
	mov	r2, #0
	ldr	r3, [r4, #120]
	ldr	ip, [r4, #116]
	mov	lr, pc
	bx	ip
.L1124:
	strb	r0, [r4, #140]
	ldrb	r3, [r4, #88]	@ zero_extendqisi2
	cmp	r3, #0
	beq	.L1125
	mov	r0, r4
	ldr	r1, [r4, #136]
	ldr	ip, [r4, #132]
	mov	lr, pc
	bx	ip
	b	.L1126
.L1125:
	ldrh	r1, [r4, #52]	@ movhi
	add	r3, r1, #1
	strh	r3, [r4, #52]	@ movhi   ;; CYGNUS LOCAL nickc
	mov	r1, r1, asl #16
	mov	r0, r4
	mov	r1, r1, lsr #16
	mov	r2, #0
	ldr	r3, [r4, #120]
	ldr	ip, [r4, #116]
	mov	lr, pc
	bx	ip
.L1126:
	strb	r0, [r4, #141]
	ldrb	r3, [r4, #0]
	tst	r3, #128
	beq	.L1127
	ldrh	r3, [r4, #52]	@ movhi
	mov	r3, r3, asl #16
	orr	r3, r3, r5, lsr #16
	mov	r5, r3, ror #16
	ldrh	r1, [r4, #48]	@ movhi
	sub	r1, r1, #1
	strh	r1, [r4, #48]	@ movhi   ;; CYGNUS LOCAL nickc
	mov	r1, r1, asl #16
	mov	r2, r5, lsr #8
	mov	r0, r4
	mov	r1, r1, lsr #16
	and	r2, r2, #255
	ldr	r3, [r4, #128]
	ldr	ip, [r4, #124]
	mov	lr, pc
	bx	ip
	ldrh	r1, [r4, #48]	@ movhi
	sub	r1, r1, #1
	strh	r1, [r4, #48]	@ movhi   ;; CYGNUS LOCAL nickc
	mov	r1, r1, asl #16
	and	r2, r5, #255
	mov	r0, r4
	mov	r1, r1, lsr #16
	ldr	r3, [r4, #128]
	ldr	ip, [r4, #124]
	mov	lr, pc
	bx	ip
	ldrh	r3, [r4, #140]	@ movhi
	strh	r3, [r4, #52]	@ movhi   ;; CYGNUS LOCAL nickc
	strh	r3, [r4, #60]	@ movhi   ;; CYGNUS LOCAL nickc
	b	.L1122
.L1127:
	ldrb	r6, [r4, #140]	@ zero_extendqisi2
	ldrb	r7, [r4, #141]	@ zero_extendqisi2
	orr	r7, r6, r7, asl #8
	strh	r7, [r4, #60]	@ movhi   ;; CYGNUS LOCAL nickc
.L1122:
	ldmfd	sp!, {r4, r5, r6, r7, lr}
	bx	lr
	.align	0
op_p_FD__FP16_z80_cpu_context:
	@ args = 0, pretend = 0, frame = 0
	@ frame_needed = 0, current_function_anonymous_args = 0
	mov	r3, #253
	strb	r3, [r0, #89]
	mov	r3, #1
	str	r3, [r0, #80]
	bx	lr
	.align	0
op_0xfe__FP16_z80_cpu_context:
	@ args = 0, pretend = 0, frame = 0
	@ frame_needed = 0, current_function_anonymous_args = 0
	stmfd	sp!, {r4, lr}
	mov	r4, r0
	ldrb	r3, [r4, #88]	@ zero_extendqisi2
	cmp	r3, #0
	beq	.L1133
	ldr	r1, [r4, #136]
	ldr	ip, [r4, #132]
	mov	lr, pc
	bx	ip
	b	.L1140
.L1133:
	ldrh	r1, [r4, #52]	@ movhi
	add	r3, r1, #1
	strh	r3, [r4, #52]	@ movhi   ;; CYGNUS LOCAL nickc
	mov	r1, r1, asl #16
	mov	r0, r4
	mov	r1, r1, lsr #16
	mov	r2, #0
	ldr	r3, [r4, #120]
	ldr	ip, [r4, #116]
	mov	lr, pc
	bx	ip
.L1140:
	mov	ip, r0
	strb	ip, [r4, #148]
	ldrb	r1, [r4, #1]	@ zero_extendqisi2
	ldrb	r3, [r4, #148]	@ zero_extendqisi2
	rsb	r1, r3, r1
	mov	r1, r1, asl #16
	ldrb	r2, [r4, #1]
	and	r2, r2, #136
	and	r3, ip, #136
	mov	r3, r3, lsr #2
	orr	r3, r3, r2, lsr #3
	and	r2, r1, #8912896
	orr	r3, r3, r2, lsr #17
	ldr	r0, .L1142
	and	r2, r3, #7
	ldrb	lr, [r0, r2]	@ zero_extendqisi2
	ldr	r2, .L1142+4
	ldrb	r2, [r2, r3, lsr #4]	@ zero_extendqisi2
	and	r0, ip, #40
	and	r3, r1, #8388608
	mov	ip, r3, lsr #16
	mov	r3, r1, lsr #16
	tst	r1, #16777216
	bne	.L1135
	cmp	r3, #0
	bne	.L1137
	orr	r3, r2, #66
	b	.L1141
.L1143:
	.align	0
.L1142:
	.word	halfcarry_sub_table
	.word	overflow_sub_table
.L1137:
	orr	r3, r2, #2
	b	.L1141
.L1135:
	orr	r3, r2, #3
.L1141:
	orr	r3, lr, r3
	orr	r3, r3, r0
	orr	r3, r3, ip
	strb	r3, [r4, #0]
	ldmfd	sp!, {r4, lr}
	bx	lr
	.align	0
op_0xff__FP16_z80_cpu_context:
	@ args = 0, pretend = 0, frame = 0
	@ frame_needed = 0, current_function_anonymous_args = 0
	stmfd	sp!, {r4, r5, lr}
	mov	r4, r0
	ldrh	r3, [r4, #52]	@ movhi
	mov	r3, r3, asl #16
	orr	r3, r3, r5, lsr #16
	mov	r5, r3, ror #16
	ldrh	r1, [r4, #48]	@ movhi
	sub	r1, r1, #1
	strh	r1, [r4, #48]	@ movhi   ;; CYGNUS LOCAL nickc
	mov	r1, r1, asl #16
	mov	r2, r5, lsr #8
	mov	r1, r1, lsr #16
	and	r2, r2, #255
	ldr	r3, [r4, #128]
	ldr	ip, [r4, #124]
	mov	lr, pc
	bx	ip
	ldrh	r1, [r4, #48]	@ movhi
	sub	r1, r1, #1
	strh	r1, [r4, #48]	@ movhi   ;; CYGNUS LOCAL nickc
	mov	r1, r1, asl #16
	and	r2, r5, #255
	mov	r0, r4
	mov	r1, r1, lsr #16
	ldr	r3, [r4, #128]
	ldr	ip, [r4, #124]
	mov	lr, pc
	bx	ip
	mov	r3, #56
	strh	r3, [r4, #52]	@ movhi   ;; CYGNUS LOCAL nickc
	strh	r3, [r4, #60]	@ movhi   ;; CYGNUS LOCAL nickc
	ldmfd	sp!, {r4, r5, lr}
	bx	lr
.data
	.align	0
opcodes_base:
	.word	op_0x00__FP16_z80_cpu_context
	.word	op_0x01__FP16_z80_cpu_context
	.word	op_0x02__FP16_z80_cpu_context
	.word	op_0x03__FP16_z80_cpu_context
	.word	op_0x04__FP16_z80_cpu_context
	.word	op_0x05__FP16_z80_cpu_context
	.word	op_0x06__FP16_z80_cpu_context
	.word	op_0x07__FP16_z80_cpu_context
	.word	op_0x08__FP16_z80_cpu_context
	.word	op_0x09__FP16_z80_cpu_context
	.word	op_0x0a__FP16_z80_cpu_context
	.word	op_0x0b__FP16_z80_cpu_context
	.word	op_0x0c__FP16_z80_cpu_context
	.word	op_0x0d__FP16_z80_cpu_context
	.word	op_0x0e__FP16_z80_cpu_context
	.word	op_0x0f__FP16_z80_cpu_context
	.word	op_0x10__FP16_z80_cpu_context
	.word	op_0x11__FP16_z80_cpu_context
	.word	op_0x12__FP16_z80_cpu_context
	.word	op_0x13__FP16_z80_cpu_context
	.word	op_0x14__FP16_z80_cpu_context
	.word	op_0x15__FP16_z80_cpu_context
	.word	op_0x16__FP16_z80_cpu_context
	.word	op_0x17__FP16_z80_cpu_context
	.word	op_0x18__FP16_z80_cpu_context
	.word	op_0x19__FP16_z80_cpu_context
	.word	op_0x1a__FP16_z80_cpu_context
	.word	op_0x1b__FP16_z80_cpu_context
	.word	op_0x1c__FP16_z80_cpu_context
	.word	op_0x1d__FP16_z80_cpu_context
	.word	op_0x1e__FP16_z80_cpu_context
	.word	op_0x1f__FP16_z80_cpu_context
	.word	op_0x20__FP16_z80_cpu_context
	.word	op_0x21__FP16_z80_cpu_context
	.word	op_0x22__FP16_z80_cpu_context
	.word	op_0x23__FP16_z80_cpu_context
	.word	op_0x24__FP16_z80_cpu_context
	.word	op_0x25__FP16_z80_cpu_context
	.word	op_0x26__FP16_z80_cpu_context
	.word	op_0x27__FP16_z80_cpu_context
	.word	op_0x28__FP16_z80_cpu_context
	.word	op_0x29__FP16_z80_cpu_context
	.word	op_0x2a__FP16_z80_cpu_context
	.word	op_0x2b__FP16_z80_cpu_context
	.word	op_0x2c__FP16_z80_cpu_context
	.word	op_0x2d__FP16_z80_cpu_context
	.word	op_0x2e__FP16_z80_cpu_context
	.word	op_0x2f__FP16_z80_cpu_context
	.word	op_0x30__FP16_z80_cpu_context
	.word	op_0x31__FP16_z80_cpu_context
	.word	op_0x32__FP16_z80_cpu_context
	.word	op_0x33__FP16_z80_cpu_context
	.word	op_0x34__FP16_z80_cpu_context
	.word	op_0x35__FP16_z80_cpu_context
	.word	op_0x36__FP16_z80_cpu_context
	.word	op_0x37__FP16_z80_cpu_context
	.word	op_0x38__FP16_z80_cpu_context
	.word	op_0x39__FP16_z80_cpu_context
	.word	op_0x3a__FP16_z80_cpu_context
	.word	op_0x3b__FP16_z80_cpu_context
	.word	op_0x3c__FP16_z80_cpu_context
	.word	op_0x3d__FP16_z80_cpu_context
	.word	op_0x3e__FP16_z80_cpu_context
	.word	op_0x3f__FP16_z80_cpu_context
	.word	op_0x40__FP16_z80_cpu_context
	.word	op_0x41__FP16_z80_cpu_context
	.word	op_0x42__FP16_z80_cpu_context
	.word	op_0x43__FP16_z80_cpu_context
	.word	op_0x44__FP16_z80_cpu_context
	.word	op_0x45__FP16_z80_cpu_context
	.word	op_0x46__FP16_z80_cpu_context
	.word	op_0x47__FP16_z80_cpu_context
	.word	op_0x48__FP16_z80_cpu_context
	.word	op_0x49__FP16_z80_cpu_context
	.word	op_0x4a__FP16_z80_cpu_context
	.word	op_0x4b__FP16_z80_cpu_context
	.word	op_0x4c__FP16_z80_cpu_context
	.word	op_0x4d__FP16_z80_cpu_context
	.word	op_0x4e__FP16_z80_cpu_context
	.word	op_0x4f__FP16_z80_cpu_context
	.word	op_0x50__FP16_z80_cpu_context
	.word	op_0x51__FP16_z80_cpu_context
	.word	op_0x52__FP16_z80_cpu_context
	.word	op_0x53__FP16_z80_cpu_context
	.word	op_0x54__FP16_z80_cpu_context
	.word	op_0x55__FP16_z80_cpu_context
	.word	op_0x56__FP16_z80_cpu_context
	.word	op_0x57__FP16_z80_cpu_context
	.word	op_0x58__FP16_z80_cpu_context
	.word	op_0x59__FP16_z80_cpu_context
	.word	op_0x5a__FP16_z80_cpu_context
	.word	op_0x5b__FP16_z80_cpu_context
	.word	op_0x5c__FP16_z80_cpu_context
	.word	op_0x5d__FP16_z80_cpu_context
	.word	op_0x5e__FP16_z80_cpu_context
	.word	op_0x5f__FP16_z80_cpu_context
	.word	op_0x60__FP16_z80_cpu_context
	.word	op_0x61__FP16_z80_cpu_context
	.word	op_0x62__FP16_z80_cpu_context
	.word	op_0x63__FP16_z80_cpu_context
	.word	op_0x64__FP16_z80_cpu_context
	.word	op_0x65__FP16_z80_cpu_context
	.word	op_0x66__FP16_z80_cpu_context
	.word	op_0x67__FP16_z80_cpu_context
	.word	op_0x68__FP16_z80_cpu_context
	.word	op_0x69__FP16_z80_cpu_context
	.word	op_0x6a__FP16_z80_cpu_context
	.word	op_0x6b__FP16_z80_cpu_context
	.word	op_0x6c__FP16_z80_cpu_context
	.word	op_0x6d__FP16_z80_cpu_context
	.word	op_0x6e__FP16_z80_cpu_context
	.word	op_0x6f__FP16_z80_cpu_context
	.word	op_0x70__FP16_z80_cpu_context
	.word	op_0x71__FP16_z80_cpu_context
	.word	op_0x72__FP16_z80_cpu_context
	.word	op_0x73__FP16_z80_cpu_context
	.word	op_0x74__FP16_z80_cpu_context
	.word	op_0x75__FP16_z80_cpu_context
	.word	op_0x76__FP16_z80_cpu_context
	.word	op_0x77__FP16_z80_cpu_context
	.word	op_0x78__FP16_z80_cpu_context
	.word	op_0x79__FP16_z80_cpu_context
	.word	op_0x7a__FP16_z80_cpu_context
	.word	op_0x7b__FP16_z80_cpu_context
	.word	op_0x7c__FP16_z80_cpu_context
	.word	op_0x7d__FP16_z80_cpu_context
	.word	op_0x7e__FP16_z80_cpu_context
	.word	op_0x7f__FP16_z80_cpu_context
	.word	op_0x80__FP16_z80_cpu_context
	.word	op_0x81__FP16_z80_cpu_context
	.word	op_0x82__FP16_z80_cpu_context
	.word	op_0x83__FP16_z80_cpu_context
	.word	op_0x84__FP16_z80_cpu_context
	.word	op_0x85__FP16_z80_cpu_context
	.word	op_0x86__FP16_z80_cpu_context
	.word	op_0x87__FP16_z80_cpu_context
	.word	op_0x88__FP16_z80_cpu_context
	.word	op_0x89__FP16_z80_cpu_context
	.word	op_0x8a__FP16_z80_cpu_context
	.word	op_0x8b__FP16_z80_cpu_context
	.word	op_0x8c__FP16_z80_cpu_context
	.word	op_0x8d__FP16_z80_cpu_context
	.word	op_0x8e__FP16_z80_cpu_context
	.word	op_0x8f__FP16_z80_cpu_context
	.word	op_0x90__FP16_z80_cpu_context
	.word	op_0x91__FP16_z80_cpu_context
	.word	op_0x92__FP16_z80_cpu_context
	.word	op_0x93__FP16_z80_cpu_context
	.word	op_0x94__FP16_z80_cpu_context
	.word	op_0x95__FP16_z80_cpu_context
	.word	op_0x96__FP16_z80_cpu_context
	.word	op_0x97__FP16_z80_cpu_context
	.word	op_0x98__FP16_z80_cpu_context
	.word	op_0x99__FP16_z80_cpu_context
	.word	op_0x9a__FP16_z80_cpu_context
	.word	op_0x9b__FP16_z80_cpu_context
	.word	op_0x9c__FP16_z80_cpu_context
	.word	op_0x9d__FP16_z80_cpu_context
	.word	op_0x9e__FP16_z80_cpu_context
	.word	op_0x9f__FP16_z80_cpu_context
	.word	op_0xa0__FP16_z80_cpu_context
	.word	op_0xa1__FP16_z80_cpu_context
	.word	op_0xa2__FP16_z80_cpu_context
	.word	op_0xa3__FP16_z80_cpu_context
	.word	op_0xa4__FP16_z80_cpu_context
	.word	op_0xa5__FP16_z80_cpu_context
	.word	op_0xa6__FP16_z80_cpu_context
	.word	op_0xa7__FP16_z80_cpu_context
	.word	op_0xa8__FP16_z80_cpu_context
	.word	op_0xa9__FP16_z80_cpu_context
	.word	op_0xaa__FP16_z80_cpu_context
	.word	op_0xab__FP16_z80_cpu_context
	.word	op_0xac__FP16_z80_cpu_context
	.word	op_0xad__FP16_z80_cpu_context
	.word	op_0xae__FP16_z80_cpu_context
	.word	op_0xaf__FP16_z80_cpu_context
	.word	op_0xb0__FP16_z80_cpu_context
	.word	op_0xb1__FP16_z80_cpu_context
	.word	op_0xb2__FP16_z80_cpu_context
	.word	op_0xb3__FP16_z80_cpu_context
	.word	op_0xb4__FP16_z80_cpu_context
	.word	op_0xb5__FP16_z80_cpu_context
	.word	op_0xb6__FP16_z80_cpu_context
	.word	op_0xb7__FP16_z80_cpu_context
	.word	op_0xb8__FP16_z80_cpu_context
	.word	op_0xb9__FP16_z80_cpu_context
	.word	op_0xba__FP16_z80_cpu_context
	.word	op_0xbb__FP16_z80_cpu_context
	.word	op_0xbc__FP16_z80_cpu_context
	.word	op_0xbd__FP16_z80_cpu_context
	.word	op_0xbe__FP16_z80_cpu_context
	.word	op_0xbf__FP16_z80_cpu_context
	.word	op_0xc0__FP16_z80_cpu_context
	.word	op_0xc1__FP16_z80_cpu_context
	.word	op_0xc2__FP16_z80_cpu_context
	.word	op_0xc3__FP16_z80_cpu_context
	.word	op_0xc4__FP16_z80_cpu_context
	.word	op_0xc5__FP16_z80_cpu_context
	.word	op_0xc6__FP16_z80_cpu_context
	.word	op_0xc7__FP16_z80_cpu_context
	.word	op_0xc8__FP16_z80_cpu_context
	.word	op_0xc9__FP16_z80_cpu_context
	.word	op_0xca__FP16_z80_cpu_context
	.word	op_p_CB__FP16_z80_cpu_context
	.word	op_0xcc__FP16_z80_cpu_context
	.word	op_0xcd__FP16_z80_cpu_context
	.word	op_0xce__FP16_z80_cpu_context
	.word	op_0xcf__FP16_z80_cpu_context
	.word	op_0xd0__FP16_z80_cpu_context
	.word	op_0xd1__FP16_z80_cpu_context
	.word	op_0xd2__FP16_z80_cpu_context
	.word	op_0xd3__FP16_z80_cpu_context
	.word	op_0xd4__FP16_z80_cpu_context
	.word	op_0xd5__FP16_z80_cpu_context
	.word	op_0xd6__FP16_z80_cpu_context
	.word	op_0xd7__FP16_z80_cpu_context
	.word	op_0xd8__FP16_z80_cpu_context
	.word	op_0xd9__FP16_z80_cpu_context
	.word	op_0xda__FP16_z80_cpu_context
	.word	op_0xdb__FP16_z80_cpu_context
	.word	op_0xdc__FP16_z80_cpu_context
	.word	op_p_DD__FP16_z80_cpu_context
	.word	op_0xde__FP16_z80_cpu_context
	.word	op_0xdf__FP16_z80_cpu_context
	.word	op_0xe0__FP16_z80_cpu_context
	.word	op_0xe1__FP16_z80_cpu_context
	.word	op_0xe2__FP16_z80_cpu_context
	.word	op_0xe3__FP16_z80_cpu_context
	.word	op_0xe4__FP16_z80_cpu_context
	.word	op_0xe5__FP16_z80_cpu_context
	.word	op_0xe6__FP16_z80_cpu_context
	.word	op_0xe7__FP16_z80_cpu_context
	.word	op_0xe8__FP16_z80_cpu_context
	.word	op_0xe9__FP16_z80_cpu_context
	.word	op_0xea__FP16_z80_cpu_context
	.word	op_0xeb__FP16_z80_cpu_context
	.word	op_0xec__FP16_z80_cpu_context
	.word	op_p_ED__FP16_z80_cpu_context
	.word	op_0xee__FP16_z80_cpu_context
	.word	op_0xef__FP16_z80_cpu_context
	.word	op_0xf0__FP16_z80_cpu_context
	.word	op_0xf1__FP16_z80_cpu_context
	.word	op_0xf2__FP16_z80_cpu_context
	.word	op_0xf3__FP16_z80_cpu_context
	.word	op_0xf4__FP16_z80_cpu_context
	.word	op_0xf5__FP16_z80_cpu_context
	.word	op_0xf6__FP16_z80_cpu_context
	.word	op_0xf7__FP16_z80_cpu_context
	.word	op_0xf8__FP16_z80_cpu_context
	.word	op_0xf9__FP16_z80_cpu_context
	.word	op_0xfa__FP16_z80_cpu_context
	.word	op_0xfb__FP16_z80_cpu_context
	.word	op_0xfc__FP16_z80_cpu_context
	.word	op_p_FD__FP16_z80_cpu_context
	.word	op_0xfe__FP16_z80_cpu_context
	.word	op_0xff__FP16_z80_cpu_context
.text
	.align	0
op_DD_0x09__FP16_z80_cpu_context:
	@ args = 0, pretend = 0, frame = 0
	@ frame_needed = 0, current_function_anonymous_args = 0
	stmfd	sp!, {lr}
	mov	ip, r0
	ldrb	r1, [ip, #32]	@ zero_extendqisi2
	ldrb	r3, [ip, #33]	@ zero_extendqisi2
	orr	r1, r1, r3, asl #8
	ldrb	r3, [ip, #4]	@ zero_extendqisi2
	ldrb	r2, [ip, #5]	@ zero_extendqisi2
	orr	r3, r3, r2, asl #8
	add	r1, r1, r3
	ldrh	r0, [ip, #32]	@ movhi
	and	r3, r0, #2048
	ldrh	r2, [ip, #4]	@ movhi
	and	r2, r2, #2048
	cmp	r2, #0
	movne	r2, #2
	moveq	r2, #0
	cmp	r3, #0
	orrne	r2, r2, #1
	and	r3, r1, #2048
	mov	r3, r3, lsr #9
	orr	r2, r2, r3
	and	r2, r2, #255
	add	r0, r0, #1
	strh	r0, [ip, #60]	@ movhi   ;; CYGNUS LOCAL nickc
	strh	r1, [ip, #32]	@ movhi   ;; CYGNUS LOCAL nickc
	ldrb	r3, [ip, #0]
	and	lr, r3, #196
	mov	r0, r1, lsr #8
	and	r0, r0, #40
	ldr	r3, .L1151
	ldrb	r2, [r3, r2]	@ zero_extendqisi2
	tst	r1, #65536
	beq	.L1147
	orr	r3, r0, #1
	orr	r1, lr, r3
	b	.L1150
.L1152:
	.align	0
.L1151:
	.word	halfcarry_add_table
.L1147:
	orr	r1, lr, r0
.L1150:
	orr	r1, r1, r2
	strb	r1, [ip, #0]
	ldmfd	sp!, {ip}
	bx	ip
	.align	0
op_DD_0x19__FP16_z80_cpu_context:
	@ args = 0, pretend = 0, frame = 0
	@ frame_needed = 0, current_function_anonymous_args = 0
	stmfd	sp!, {lr}
	mov	ip, r0
	ldrb	r1, [ip, #32]	@ zero_extendqisi2
	ldrb	r3, [ip, #33]	@ zero_extendqisi2
	orr	r1, r1, r3, asl #8
	ldrb	r3, [ip, #8]	@ zero_extendqisi2
	ldrb	r2, [ip, #9]	@ zero_extendqisi2
	orr	r3, r3, r2, asl #8
	add	r1, r1, r3
	ldrh	r0, [ip, #32]	@ movhi
	and	r3, r0, #2048
	ldrh	r2, [ip, #8]	@ movhi
	and	r2, r2, #2048
	cmp	r2, #0
	movne	r2, #2
	moveq	r2, #0
	cmp	r3, #0
	orrne	r2, r2, #1
	and	r3, r1, #2048
	mov	r3, r3, lsr #9
	orr	r2, r2, r3
	and	r2, r2, #255
	add	r0, r0, #1
	strh	r0, [ip, #60]	@ movhi   ;; CYGNUS LOCAL nickc
	strh	r1, [ip, #32]	@ movhi   ;; CYGNUS LOCAL nickc
	ldrb	r3, [ip, #0]
	and	lr, r3, #196
	mov	r0, r1, lsr #8
	and	r0, r0, #40
	ldr	r3, .L1158
	ldrb	r2, [r3, r2]	@ zero_extendqisi2
	tst	r1, #65536
	beq	.L1154
	orr	r3, r0, #1
	orr	r1, lr, r3
	b	.L1157
.L1159:
	.align	0
.L1158:
	.word	halfcarry_add_table
.L1154:
	orr	r1, lr, r0
.L1157:
	orr	r1, r1, r2
	strb	r1, [ip, #0]
	ldmfd	sp!, {ip}
	bx	ip
	.align	0
op_DD_0x21__FP16_z80_cpu_context:
	@ args = 0, pretend = 0, frame = 0
	@ frame_needed = 0, current_function_anonymous_args = 0
	stmfd	sp!, {r4, r5, r6, lr}
	mov	r4, r0
	ldrb	r3, [r4, #88]	@ zero_extendqisi2
	cmp	r3, #0
	beq	.L1161
	ldr	r1, [r4, #136]
	ldr	ip, [r4, #132]
	mov	lr, pc
	bx	ip
	b	.L1162
.L1161:
	ldrh	r1, [r4, #52]	@ movhi
	add	r3, r1, #1
	strh	r3, [r4, #52]	@ movhi   ;; CYGNUS LOCAL nickc
	mov	r1, r1, asl #16
	mov	r0, r4
	mov	r1, r1, lsr #16
	mov	r2, #0
	ldr	r3, [r4, #120]
	ldr	ip, [r4, #116]
	mov	lr, pc
	bx	ip
.L1162:
	strb	r0, [r4, #140]
	ldrb	r3, [r4, #88]	@ zero_extendqisi2
	cmp	r3, #0
	beq	.L1163
	mov	r0, r4
	ldr	r1, [r4, #136]
	ldr	ip, [r4, #132]
	mov	lr, pc
	bx	ip
	b	.L1164
.L1163:
	ldrh	r1, [r4, #52]	@ movhi
	add	r3, r1, #1
	strh	r3, [r4, #52]	@ movhi   ;; CYGNUS LOCAL nickc
	mov	r1, r1, asl #16
	mov	r0, r4
	mov	r1, r1, lsr #16
	mov	r2, #0
	ldr	r3, [r4, #120]
	ldr	ip, [r4, #116]
	mov	lr, pc
	bx	ip
.L1164:
	strb	r0, [r4, #141]
	ldrb	r5, [r4, #140]	@ zero_extendqisi2
	ldrb	r6, [r4, #141]	@ zero_extendqisi2
	orr	r6, r5, r6, asl #8
	strh	r6, [r4, #32]	@ movhi   ;; CYGNUS LOCAL nickc
	ldmfd	sp!, {r4, r5, r6, lr}
	bx	lr
	.align	0
op_DD_0x22__FP16_z80_cpu_context:
	@ args = 0, pretend = 0, frame = 0
	@ frame_needed = 0, current_function_anonymous_args = 0
	stmfd	sp!, {r4, r5, r6, lr}
	mov	r4, r0
	ldrb	r3, [r4, #88]	@ zero_extendqisi2
	cmp	r3, #0
	beq	.L1167
	ldr	r1, [r4, #136]
	ldr	ip, [r4, #132]
	mov	lr, pc
	bx	ip
	b	.L1168
.L1167:
	ldrh	r1, [r4, #52]	@ movhi
	add	r3, r1, #1
	strh	r3, [r4, #52]	@ movhi   ;; CYGNUS LOCAL nickc
	mov	r1, r1, asl #16
	mov	r0, r4
	mov	r1, r1, lsr #16
	mov	r2, #0
	ldr	r3, [r4, #120]
	ldr	ip, [r4, #116]
	mov	lr, pc
	bx	ip
.L1168:
	strb	r0, [r4, #144]
	ldrb	r3, [r4, #88]	@ zero_extendqisi2
	cmp	r3, #0
	beq	.L1169
	mov	r0, r4
	ldr	r1, [r4, #136]
	ldr	ip, [r4, #132]
	mov	lr, pc
	bx	ip
	b	.L1170
.L1169:
	ldrh	r1, [r4, #52]	@ movhi
	add	r3, r1, #1
	strh	r3, [r4, #52]	@ movhi   ;; CYGNUS LOCAL nickc
	mov	r1, r1, asl #16
	mov	r0, r4
	mov	r1, r1, lsr #16
	mov	r2, #0
	ldr	r3, [r4, #120]
	ldr	ip, [r4, #116]
	mov	lr, pc
	bx	ip
.L1170:
	strb	r0, [r4, #145]
	ldrb	r5, [r4, #32]	@ zero_extendqisi2
	ldrb	r6, [r4, #33]	@ zero_extendqisi2
	orr	r6, r5, r6, asl #8
	strh	r6, [r4, #140]	@ movhi   ;; CYGNUS LOCAL nickc
	ldrh	r3, [r4, #144]	@ movhi
	add	r3, r3, #1
	strh	r3, [r4, #60]	@ movhi   ;; CYGNUS LOCAL nickc
	ldrb	r3, [r4, #144]	@ zero_extendqisi2
	ldrb	r1, [r4, #145]	@ zero_extendqisi2
	mov	r0, r4
	orr	r1, r3, r1, asl #8
	ldrb	r2, [r4, #140]	@ zero_extendqisi2
	ldr	r3, [r4, #128]
	ldr	ip, [r4, #124]
	mov	lr, pc
	bx	ip
	ldrh	r1, [r4, #144]	@ movhi
	add	r1, r1, #1
	mov	r1, r1, asl #16
	mov	r0, r4
	mov	r1, r1, lsr #16
	ldrb	r2, [r4, #141]	@ zero_extendqisi2
	ldr	r3, [r4, #128]
	ldr	ip, [r4, #124]
	mov	lr, pc
	bx	ip
	ldmfd	sp!, {r4, r5, r6, lr}
	bx	lr
	.align	0
op_DD_0x23__FP16_z80_cpu_context:
	@ args = 0, pretend = 0, frame = 0
	@ frame_needed = 0, current_function_anonymous_args = 0
	ldrh	r3, [r0, #32]	@ movhi
	add	r3, r3, #1
	strh	r3, [r0, #32]	@ movhi   ;; CYGNUS LOCAL nickc
	bx	lr
	.align	0
op_DD_0x24__FP16_z80_cpu_context:
	@ args = 0, pretend = 0, frame = 0
	@ frame_needed = 0, current_function_anonymous_args = 0
	ldrb	r2, [r0, #33]
	add	r2, r2, #1
	strb	r2, [r0, #33]
	ldrb	r3, [r0, #0]
	and	r3, r3, #1
	ldrb	r1, [r0, #33]	@ zero_extendqisi2
	cmp	r1, #128
	movne	ip, #0
	moveq	ip, #1
	orr	ip, r3, ip, asl #2
	ldr	r3, .L1178
	ldrb	r1, [r3, r1]	@ zero_extendqisi2
	tst	r2, #15
	bne	.L1175
	orr	r3, r1, #16
	orr	r1, ip, r3
	b	.L1176
.L1179:
	.align	0
.L1178:
	.word	sz53_table
.L1175:
	orr	r1, ip, r1
.L1176:
	strb	r1, [r0, #0]
	bx	lr
	.align	0
op_DD_0x25__FP16_z80_cpu_context:
	@ args = 0, pretend = 0, frame = 0
	@ frame_needed = 0, current_function_anonymous_args = 0
	ldrb	r3, [r0, #0]
	and	r3, r3, #1
	ldrb	ip, [r0, #33]
	tst	ip, #15
	orreq	r3, r3, #18
.L1181:
	orrne	r3, r3, #2
.L1182:
	strb	r3, [r0, #0]
	ldrb	r3, [r0, #33]
	sub	r3, r3, #1
	strb	r3, [r0, #33]
	ldr	r3, .L1186
	ldrb	r2, [r0, #33]	@ zero_extendqisi2
	ldrb	r1, [r3, r2]	@ zero_extendqisi2
	ldrb	r3, [r0, #0]	@ zero_extendqisi2
	cmp	r2, #127
	orreq	r3, r3, #4
.L1183:
	orr	r3, r3, r1
	strb	r3, [r0, #0]
	bx	lr
.L1187:
	.align	0
.L1186:
	.word	sz53_table
	.align	0
op_DD_0x26__FP16_z80_cpu_context:
	@ args = 0, pretend = 0, frame = 0
	@ frame_needed = 0, current_function_anonymous_args = 0
	stmfd	sp!, {r4, lr}
	mov	r4, r0
	ldrb	r3, [r4, #88]	@ zero_extendqisi2
	cmp	r3, #0
	beq	.L1189
	ldr	r1, [r4, #136]
	ldr	ip, [r4, #132]
	mov	lr, pc
	bx	ip
	b	.L1190
.L1189:
	ldrh	r1, [r4, #52]	@ movhi
	add	r3, r1, #1
	strh	r3, [r4, #52]	@ movhi   ;; CYGNUS LOCAL nickc
	mov	r1, r1, asl #16
	mov	r0, r4
	mov	r1, r1, lsr #16
	mov	r2, #0
	ldr	r3, [r4, #120]
	ldr	ip, [r4, #116]
	mov	lr, pc
	bx	ip
.L1190:
	strb	r0, [r4, #148]
	strb	r0, [r4, #33]
	ldmfd	sp!, {r4, lr}
	bx	lr
	.align	0
op_DD_0x29__FP16_z80_cpu_context:
	@ args = 0, pretend = 0, frame = 0
	@ frame_needed = 0, current_function_anonymous_args = 0
	stmfd	sp!, {lr}
	mov	ip, r0
	ldrb	r1, [ip, #32]	@ zero_extendqisi2
	ldrb	r3, [ip, #33]	@ zero_extendqisi2
	orr	r1, r1, r3, asl #8
	mov	r1, r1, asl #1
	ldrh	r0, [ip, #32]	@ movhi
	and	r2, r0, #2048
	cmp	r2, #0
	movne	r2, #3
	moveq	r2, #0
	and	r3, r1, #2048
	mov	r3, r3, lsr #9
	orr	r2, r2, r3
	and	r2, r2, #255
	add	r0, r0, #1
	strh	r0, [ip, #60]	@ movhi   ;; CYGNUS LOCAL nickc
	strh	r1, [ip, #32]	@ movhi   ;; CYGNUS LOCAL nickc
	ldrb	r3, [ip, #0]
	and	lr, r3, #196
	mov	r0, r1, lsr #8
	and	r0, r0, #40
	ldr	r3, .L1197
	ldrb	r2, [r3, r2]	@ zero_extendqisi2
	tst	r1, #65536
	beq	.L1193
	orr	r3, r0, #1
	orr	r1, lr, r3
	b	.L1196
.L1198:
	.align	0
.L1197:
	.word	halfcarry_add_table
.L1193:
	orr	r1, lr, r0
.L1196:
	orr	r1, r1, r2
	strb	r1, [ip, #0]
	ldmfd	sp!, {ip}
	bx	ip
	.align	0
op_DD_0x2a__FP16_z80_cpu_context:
	@ args = 0, pretend = 0, frame = 0
	@ frame_needed = 0, current_function_anonymous_args = 0
	stmfd	sp!, {r4, r5, r6, lr}
	mov	r4, r0
	ldrb	r3, [r4, #88]	@ zero_extendqisi2
	cmp	r3, #0
	beq	.L1200
	ldr	r1, [r4, #136]
	ldr	ip, [r4, #132]
	mov	lr, pc
	bx	ip
	b	.L1201
.L1200:
	ldrh	r1, [r4, #52]	@ movhi
	add	r3, r1, #1
	strh	r3, [r4, #52]	@ movhi   ;; CYGNUS LOCAL nickc
	mov	r1, r1, asl #16
	mov	r0, r4
	mov	r1, r1, lsr #16
	mov	r2, #0
	ldr	r3, [r4, #120]
	ldr	ip, [r4, #116]
	mov	lr, pc
	bx	ip
.L1201:
	strb	r0, [r4, #144]
	ldrb	r3, [r4, #88]	@ zero_extendqisi2
	cmp	r3, #0
	beq	.L1202
	mov	r0, r4
	ldr	r1, [r4, #136]
	ldr	ip, [r4, #132]
	mov	lr, pc
	bx	ip
	b	.L1203
.L1202:
	ldrh	r1, [r4, #52]	@ movhi
	add	r3, r1, #1
	strh	r3, [r4, #52]	@ movhi   ;; CYGNUS LOCAL nickc
	mov	r1, r1, asl #16
	mov	r0, r4
	mov	r1, r1, lsr #16
	mov	r2, #0
	ldr	r3, [r4, #120]
	ldr	ip, [r4, #116]
	mov	lr, pc
	bx	ip
.L1203:
	strb	r0, [r4, #145]
	ldrb	r3, [r4, #144]	@ zero_extendqisi2
	ldrb	r1, [r4, #145]	@ zero_extendqisi2
	mov	r0, r4
	orr	r1, r3, r1, asl #8
	mov	r2, #0
	ldr	r3, [r4, #120]
	ldr	ip, [r4, #116]
	mov	lr, pc
	bx	ip
	strb	r0, [r4, #140]
	ldrh	r1, [r4, #144]	@ movhi
	add	r1, r1, #1
	mov	r1, r1, asl #16
	mov	r0, r4
	mov	r1, r1, lsr #16
	mov	r2, #0
	ldr	r3, [r4, #120]
	ldr	ip, [r4, #116]
	mov	lr, pc
	bx	ip
	strb	r0, [r4, #141]
	ldrb	r5, [r4, #140]	@ zero_extendqisi2
	ldrb	r6, [r4, #141]	@ zero_extendqisi2
	orr	r6, r5, r6, asl #8
	strh	r6, [r4, #32]	@ movhi   ;; CYGNUS LOCAL nickc
	ldrh	r3, [r4, #144]	@ movhi
	add	r3, r3, #1
	strh	r3, [r4, #60]	@ movhi   ;; CYGNUS LOCAL nickc
	ldmfd	sp!, {r4, r5, r6, lr}
	bx	lr
	.align	0
op_DD_0x2b__FP16_z80_cpu_context:
	@ args = 0, pretend = 0, frame = 0
	@ frame_needed = 0, current_function_anonymous_args = 0
	ldrh	r3, [r0, #32]	@ movhi
	sub	r3, r3, #1
	strh	r3, [r0, #32]	@ movhi   ;; CYGNUS LOCAL nickc
	bx	lr
	.align	0
op_DD_0x2c__FP16_z80_cpu_context:
	@ args = 0, pretend = 0, frame = 0
	@ frame_needed = 0, current_function_anonymous_args = 0
	ldrb	r2, [r0, #32]
	add	r2, r2, #1
	strb	r2, [r0, #32]
	ldrb	r3, [r0, #0]
	and	r3, r3, #1
	ldrb	r1, [r0, #32]	@ zero_extendqisi2
	cmp	r1, #128
	movne	ip, #0
	moveq	ip, #1
	orr	ip, r3, ip, asl #2
	ldr	r3, .L1211
	ldrb	r1, [r3, r1]	@ zero_extendqisi2
	tst	r2, #15
	bne	.L1208
	orr	r3, r1, #16
	orr	r1, ip, r3
	b	.L1209
.L1212:
	.align	0
.L1211:
	.word	sz53_table
.L1208:
	orr	r1, ip, r1
.L1209:
	strb	r1, [r0, #0]
	bx	lr
	.align	0
op_DD_0x2d__FP16_z80_cpu_context:
	@ args = 0, pretend = 0, frame = 0
	@ frame_needed = 0, current_function_anonymous_args = 0
	ldrb	r3, [r0, #0]
	and	r3, r3, #1
	ldrb	ip, [r0, #32]
	tst	ip, #15
	orreq	r3, r3, #18
.L1214:
	orrne	r3, r3, #2
.L1215:
	strb	r3, [r0, #0]
	ldrb	r3, [r0, #32]
	sub	r3, r3, #1
	strb	r3, [r0, #32]
	ldr	r3, .L1219
	ldrb	r2, [r0, #32]	@ zero_extendqisi2
	ldrb	r1, [r3, r2]	@ zero_extendqisi2
	ldrb	r3, [r0, #0]	@ zero_extendqisi2
	cmp	r2, #127
	orreq	r3, r3, #4
.L1216:
	orr	r3, r3, r1
	strb	r3, [r0, #0]
	bx	lr
.L1220:
	.align	0
.L1219:
	.word	sz53_table
	.align	0
op_DD_0x2e__FP16_z80_cpu_context:
	@ args = 0, pretend = 0, frame = 0
	@ frame_needed = 0, current_function_anonymous_args = 0
	stmfd	sp!, {r4, lr}
	mov	r4, r0
	ldrb	r3, [r4, #88]	@ zero_extendqisi2
	cmp	r3, #0
	beq	.L1222
	ldr	r1, [r4, #136]
	ldr	ip, [r4, #132]
	mov	lr, pc
	bx	ip
	b	.L1223
.L1222:
	ldrh	r1, [r4, #52]	@ movhi
	add	r3, r1, #1
	strh	r3, [r4, #52]	@ movhi   ;; CYGNUS LOCAL nickc
	mov	r1, r1, asl #16
	mov	r0, r4
	mov	r1, r1, lsr #16
	mov	r2, #0
	ldr	r3, [r4, #120]
	ldr	ip, [r4, #116]
	mov	lr, pc
	bx	ip
.L1223:
	strb	r0, [r4, #148]
	strb	r0, [r4, #32]
	ldmfd	sp!, {r4, lr}
	bx	lr
	.align	0
op_DD_0x34__FP16_z80_cpu_context:
	@ args = 0, pretend = 0, frame = 0
	@ frame_needed = 0, current_function_anonymous_args = 0
	stmfd	sp!, {r4, lr}
	mov	r4, r0
	ldrb	r3, [r4, #88]	@ zero_extendqisi2
	cmp	r3, #0
	beq	.L1226
	ldr	r1, [r4, #136]
	ldr	ip, [r4, #132]
	mov	lr, pc
	bx	ip
	b	.L1227
.L1226:
	ldrh	r1, [r4, #52]	@ movhi
	add	r3, r1, #1
	strh	r3, [r4, #52]	@ movhi   ;; CYGNUS LOCAL nickc
	mov	r1, r1, asl #16
	mov	r0, r4
	mov	r1, r1, lsr #16
	mov	r2, #0
	ldr	r3, [r4, #120]
	ldr	ip, [r4, #116]
	mov	lr, pc
	bx	ip
.L1227:
	strb	r0, [r4, #148]
	tst	r0, #128
	orrne	r3, r0, #128
.L1228:
	ldreqb	r3, [r4, #148]
.L1229:
	strb	r3, [r4, #149]
	ldrsb	r3, [r4, #149]
	ldrh	r2, [r4, #32]	@ movhi
	add	r3, r3, r2
	strh	r3, [r4, #60]	@ movhi   ;; CYGNUS LOCAL nickc
	ldrsb	r1, [r4, #149]
	add	r1, r1, r2
	mov	r1, r1, asl #16
	mov	r0, r4
	mov	r1, r1, lsr #16
	mov	r2, #0
	ldr	r3, [r4, #120]
	ldr	ip, [r4, #116]
	mov	lr, pc
	bx	ip
	add	r0, r0, #1
	strb	r0, [r4, #148]
	ldrb	r3, [r4, #0]
	and	r3, r3, #1
	ldrb	r2, [r4, #148]	@ zero_extendqisi2
	cmp	r2, #128
	movne	r1, #0
	moveq	r1, #1
	orr	r1, r3, r1, asl #2
	ldr	r3, .L1233
	ldrb	r2, [r3, r2]	@ zero_extendqisi2
	tst	r0, #15
	bne	.L1230
	orr	r3, r2, #16
	orr	r2, r1, r3
	b	.L1231
.L1234:
	.align	0
.L1233:
	.word	sz53_table
.L1230:
	orr	r2, r1, r2
.L1231:
	strb	r2, [r4, #0]
	ldrsb	r1, [r4, #149]
	ldrh	r3, [r4, #32]	@ movhi
	add	r1, r1, r3
	mov	r1, r1, asl #16
	mov	r0, r4
	mov	r1, r1, lsr #16
	ldrb	r2, [r4, #148]	@ zero_extendqisi2
	ldr	r3, [r4, #128]
	ldr	ip, [r4, #124]
	mov	lr, pc
	bx	ip
	ldmfd	sp!, {r4, lr}
	bx	lr
	.align	0
op_DD_0x35__FP16_z80_cpu_context:
	@ args = 0, pretend = 0, frame = 0
	@ frame_needed = 0, current_function_anonymous_args = 0
	stmfd	sp!, {r4, lr}
	mov	r4, r0
	ldrb	r3, [r4, #88]	@ zero_extendqisi2
	cmp	r3, #0
	beq	.L1236
	ldr	r1, [r4, #136]
	ldr	ip, [r4, #132]
	mov	lr, pc
	bx	ip
	b	.L1237
.L1236:
	ldrh	r1, [r4, #52]	@ movhi
	add	r3, r1, #1
	strh	r3, [r4, #52]	@ movhi   ;; CYGNUS LOCAL nickc
	mov	r1, r1, asl #16
	mov	r0, r4
	mov	r1, r1, lsr #16
	mov	r2, #0
	ldr	r3, [r4, #120]
	ldr	ip, [r4, #116]
	mov	lr, pc
	bx	ip
.L1237:
	strb	r0, [r4, #148]
	tst	r0, #128
	orrne	r3, r0, #128
.L1238:
	ldreqb	r3, [r4, #148]
.L1239:
	strb	r3, [r4, #149]
	ldrsb	r3, [r4, #149]
	ldrh	r2, [r4, #32]	@ movhi
	add	r3, r3, r2
	strh	r3, [r4, #60]	@ movhi   ;; CYGNUS LOCAL nickc
	ldrsb	r1, [r4, #149]
	add	r1, r1, r2
	mov	r1, r1, asl #16
	mov	r0, r4
	mov	r1, r1, lsr #16
	mov	r2, #0
	ldr	r3, [r4, #120]
	ldr	ip, [r4, #116]
	mov	lr, pc
	bx	ip
	strb	r0, [r4, #148]
	ldrb	r3, [r4, #0]
	and	r3, r3, #1
	tst	r0, #15
	orreq	r3, r3, #18
.L1240:
	orrne	r3, r3, #2
.L1241:
	strb	r3, [r4, #0]
	ldrb	r3, [r4, #148]
	sub	r3, r3, #1
	strb	r3, [r4, #148]
	ldr	r3, .L1246
	ldrb	r2, [r4, #148]	@ zero_extendqisi2
	ldrb	r1, [r3, r2]	@ zero_extendqisi2
	ldrb	r3, [r4, #0]	@ zero_extendqisi2
	cmp	r2, #127
	orreq	r3, r3, #4
.L1242:
	orr	r3, r3, r1
	strb	r3, [r4, #0]
	ldrsb	r1, [r4, #149]
	ldrh	r3, [r4, #32]	@ movhi
	add	r1, r1, r3
	mov	r1, r1, asl #16
	mov	r0, r4
	mov	r1, r1, lsr #16
	ldrb	r2, [r4, #148]	@ zero_extendqisi2
	ldr	r3, [r4, #128]
	ldr	ip, [r4, #124]
	mov	lr, pc
	bx	ip
	b	.L1245
.L1247:
	.align	0
.L1246:
	.word	sz53_table
.L1245:
	ldmfd	sp!, {r4, lr}
	bx	lr
	.align	0
op_DD_0x36__FP16_z80_cpu_context:
	@ args = 0, pretend = 0, frame = 0
	@ frame_needed = 0, current_function_anonymous_args = 0
	stmfd	sp!, {r4, lr}
	mov	r4, r0
	ldrb	r3, [r4, #88]	@ zero_extendqisi2
	cmp	r3, #0
	beq	.L1249
	ldr	r1, [r4, #136]
	ldr	ip, [r4, #132]
	mov	lr, pc
	bx	ip
	b	.L1250
.L1249:
	ldrh	r1, [r4, #52]	@ movhi
	add	r3, r1, #1
	strh	r3, [r4, #52]	@ movhi   ;; CYGNUS LOCAL nickc
	mov	r1, r1, asl #16
	mov	r0, r4
	mov	r1, r1, lsr #16
	mov	r2, #0
	ldr	r3, [r4, #120]
	ldr	ip, [r4, #116]
	mov	lr, pc
	bx	ip
.L1250:
	strb	r0, [r4, #148]
	tst	r0, #128
	orrne	r3, r0, #128
.L1251:
	ldreqb	r3, [r4, #148]
.L1252:
	strb	r3, [r4, #149]
	ldrsb	r3, [r4, #149]
	ldrh	r2, [r4, #32]	@ movhi
	add	r3, r3, r2
	strh	r3, [r4, #60]	@ movhi   ;; CYGNUS LOCAL nickc
	ldrb	r3, [r4, #88]	@ zero_extendqisi2
	cmp	r3, #0
	beq	.L1253
	mov	r0, r4
	ldr	r1, [r4, #136]
	ldr	ip, [r4, #132]
	mov	lr, pc
	bx	ip
	b	.L1254
.L1253:
	ldrh	r1, [r4, #52]	@ movhi
	add	r3, r1, #1
	strh	r3, [r4, #52]	@ movhi   ;; CYGNUS LOCAL nickc
	mov	r1, r1, asl #16
	mov	r0, r4
	mov	r1, r1, lsr #16
	mov	r2, #0
	ldr	r3, [r4, #120]
	ldr	ip, [r4, #116]
	mov	lr, pc
	bx	ip
.L1254:
	strb	r0, [r4, #148]
	ldrsb	r1, [r4, #149]
	ldrh	r3, [r4, #32]	@ movhi
	add	r1, r1, r3
	mov	r1, r1, asl #16
	mov	r0, r4
	mov	r1, r1, lsr #16
	ldrb	r2, [r4, #148]	@ zero_extendqisi2
	ldr	r3, [r4, #128]
	ldr	ip, [r4, #124]
	mov	lr, pc
	bx	ip
	ldmfd	sp!, {r4, lr}
	bx	lr
	.align	0
op_DD_0x39__FP16_z80_cpu_context:
	@ args = 0, pretend = 0, frame = 0
	@ frame_needed = 0, current_function_anonymous_args = 0
	stmfd	sp!, {lr}
	mov	ip, r0
	ldrb	r1, [ip, #32]	@ zero_extendqisi2
	ldrb	r3, [ip, #33]	@ zero_extendqisi2
	orr	r1, r1, r3, asl #8
	ldrb	r3, [ip, #48]	@ zero_extendqisi2
	ldrb	r2, [ip, #49]	@ zero_extendqisi2
	orr	r3, r3, r2, asl #8
	add	r1, r1, r3
	ldrh	r0, [ip, #32]	@ movhi
	and	r3, r0, #2048
	ldrh	r2, [ip, #48]	@ movhi
	and	r2, r2, #2048
	cmp	r2, #0
	movne	r2, #2
	moveq	r2, #0
	cmp	r3, #0
	orrne	r2, r2, #1
	and	r3, r1, #2048
	mov	r3, r3, lsr #9
	orr	r2, r2, r3
	and	r2, r2, #255
	add	r0, r0, #1
	strh	r0, [ip, #60]	@ movhi   ;; CYGNUS LOCAL nickc
	strh	r1, [ip, #32]	@ movhi   ;; CYGNUS LOCAL nickc
	ldrb	r3, [ip, #0]
	and	lr, r3, #196
	mov	r0, r1, lsr #8
	and	r0, r0, #40
	ldr	r3, .L1261
	ldrb	r2, [r3, r2]	@ zero_extendqisi2
	tst	r1, #65536
	beq	.L1257
	orr	r3, r0, #1
	orr	r1, lr, r3
	b	.L1260
.L1262:
	.align	0
.L1261:
	.word	halfcarry_add_table
.L1257:
	orr	r1, lr, r0
.L1260:
	orr	r1, r1, r2
	strb	r1, [ip, #0]
	ldmfd	sp!, {ip}
	bx	ip
	.align	0
op_DD_0x44__FP16_z80_cpu_context:
	@ args = 0, pretend = 0, frame = 0
	@ frame_needed = 0, current_function_anonymous_args = 0
	ldrb	r3, [r0, #33]
	strb	r3, [r0, #5]
	bx	lr
	.align	0
op_DD_0x45__FP16_z80_cpu_context:
	@ args = 0, pretend = 0, frame = 0
	@ frame_needed = 0, current_function_anonymous_args = 0
	ldrb	r3, [r0, #32]
	strb	r3, [r0, #5]
	bx	lr
	.align	0
op_DD_0x46__FP16_z80_cpu_context:
	@ args = 0, pretend = 0, frame = 0
	@ frame_needed = 0, current_function_anonymous_args = 0
	stmfd	sp!, {r4, lr}
	mov	r4, r0
	ldrb	r3, [r4, #88]	@ zero_extendqisi2
	cmp	r3, #0
	beq	.L1268
	ldr	r1, [r4, #136]
	ldr	ip, [r4, #132]
	mov	lr, pc
	bx	ip
	b	.L1269
.L1268:
	ldrh	r1, [r4, #52]	@ movhi
	add	r3, r1, #1
	strh	r3, [r4, #52]	@ movhi   ;; CYGNUS LOCAL nickc
	mov	r1, r1, asl #16
	mov	r0, r4
	mov	r1, r1, lsr #16
	mov	r2, #0
	ldr	r3, [r4, #120]
	ldr	ip, [r4, #116]
	mov	lr, pc
	bx	ip
.L1269:
	strb	r0, [r4, #148]
	tst	r0, #128
	orrne	r3, r0, #128
.L1270:
	ldreqb	r3, [r4, #148]
.L1271:
	strb	r3, [r4, #149]
	ldrsb	r3, [r4, #149]
	ldrh	r2, [r4, #32]	@ movhi
	add	r3, r3, r2
	strh	r3, [r4, #60]	@ movhi   ;; CYGNUS LOCAL nickc
	ldrsb	r1, [r4, #149]
	add	r1, r1, r2
	mov	r1, r1, asl #16
	mov	r0, r4
	mov	r1, r1, lsr #16
	mov	r2, #0
	ldr	r3, [r4, #120]
	ldr	ip, [r4, #116]
	mov	lr, pc
	bx	ip
	strb	r0, [r4, #148]
	strb	r0, [r4, #5]
	ldmfd	sp!, {r4, lr}
	bx	lr
	.align	0
op_DD_0x4c__FP16_z80_cpu_context:
	@ args = 0, pretend = 0, frame = 0
	@ frame_needed = 0, current_function_anonymous_args = 0
	ldrb	r3, [r0, #33]
	strb	r3, [r0, #4]
	bx	lr
	.align	0
op_DD_0x4d__FP16_z80_cpu_context:
	@ args = 0, pretend = 0, frame = 0
	@ frame_needed = 0, current_function_anonymous_args = 0
	ldrb	r3, [r0, #32]
	strb	r3, [r0, #4]
	bx	lr
	.align	0
op_DD_0x4e__FP16_z80_cpu_context:
	@ args = 0, pretend = 0, frame = 0
	@ frame_needed = 0, current_function_anonymous_args = 0
	stmfd	sp!, {r4, lr}
	mov	r4, r0
	ldrb	r3, [r4, #88]	@ zero_extendqisi2
	cmp	r3, #0
	beq	.L1278
	ldr	r1, [r4, #136]
	ldr	ip, [r4, #132]
	mov	lr, pc
	bx	ip
	b	.L1279
.L1278:
	ldrh	r1, [r4, #52]	@ movhi
	add	r3, r1, #1
	strh	r3, [r4, #52]	@ movhi   ;; CYGNUS LOCAL nickc
	mov	r1, r1, asl #16
	mov	r0, r4
	mov	r1, r1, lsr #16
	mov	r2, #0
	ldr	r3, [r4, #120]
	ldr	ip, [r4, #116]
	mov	lr, pc
	bx	ip
.L1279:
	strb	r0, [r4, #148]
	tst	r0, #128
	orrne	r3, r0, #128
.L1280:
	ldreqb	r3, [r4, #148]
.L1281:
	strb	r3, [r4, #149]
	ldrsb	r3, [r4, #149]
	ldrh	r2, [r4, #32]	@ movhi
	add	r3, r3, r2
	strh	r3, [r4, #60]	@ movhi   ;; CYGNUS LOCAL nickc
	ldrsb	r1, [r4, #149]
	add	r1, r1, r2
	mov	r1, r1, asl #16
	mov	r0, r4
	mov	r1, r1, lsr #16
	mov	r2, #0
	ldr	r3, [r4, #120]
	ldr	ip, [r4, #116]
	mov	lr, pc
	bx	ip
	strb	r0, [r4, #148]
	strb	r0, [r4, #4]
	ldmfd	sp!, {r4, lr}
	bx	lr
	.align	0
op_DD_0x54__FP16_z80_cpu_context:
	@ args = 0, pretend = 0, frame = 0
	@ frame_needed = 0, current_function_anonymous_args = 0
	ldrb	r3, [r0, #33]
	strb	r3, [r0, #9]
	bx	lr
	.align	0
op_DD_0x55__FP16_z80_cpu_context:
	@ args = 0, pretend = 0, frame = 0
	@ frame_needed = 0, current_function_anonymous_args = 0
	ldrb	r3, [r0, #32]
	strb	r3, [r0, #9]
	bx	lr
	.align	0
op_DD_0x56__FP16_z80_cpu_context:
	@ args = 0, pretend = 0, frame = 0
	@ frame_needed = 0, current_function_anonymous_args = 0
	stmfd	sp!, {r4, lr}
	mov	r4, r0
	ldrb	r3, [r4, #88]	@ zero_extendqisi2
	cmp	r3, #0
	beq	.L1288
	ldr	r1, [r4, #136]
	ldr	ip, [r4, #132]
	mov	lr, pc
	bx	ip
	b	.L1289
.L1288:
	ldrh	r1, [r4, #52]	@ movhi
	add	r3, r1, #1
	strh	r3, [r4, #52]	@ movhi   ;; CYGNUS LOCAL nickc
	mov	r1, r1, asl #16
	mov	r0, r4
	mov	r1, r1, lsr #16
	mov	r2, #0
	ldr	r3, [r4, #120]
	ldr	ip, [r4, #116]
	mov	lr, pc
	bx	ip
.L1289:
	strb	r0, [r4, #148]
	tst	r0, #128
	orrne	r3, r0, #128
.L1290:
	ldreqb	r3, [r4, #148]
.L1291:
	strb	r3, [r4, #149]
	ldrsb	r3, [r4, #149]
	ldrh	r2, [r4, #32]	@ movhi
	add	r3, r3, r2
	strh	r3, [r4, #60]	@ movhi   ;; CYGNUS LOCAL nickc
	ldrsb	r1, [r4, #149]
	add	r1, r1, r2
	mov	r1, r1, asl #16
	mov	r0, r4
	mov	r1, r1, lsr #16
	mov	r2, #0
	ldr	r3, [r4, #120]
	ldr	ip, [r4, #116]
	mov	lr, pc
	bx	ip
	strb	r0, [r4, #148]
	strb	r0, [r4, #9]
	ldmfd	sp!, {r4, lr}
	bx	lr
	.align	0
op_DD_0x5c__FP16_z80_cpu_context:
	@ args = 0, pretend = 0, frame = 0
	@ frame_needed = 0, current_function_anonymous_args = 0
	ldrb	r3, [r0, #33]
	strb	r3, [r0, #8]
	bx	lr
	.align	0
op_DD_0x5d__FP16_z80_cpu_context:
	@ args = 0, pretend = 0, frame = 0
	@ frame_needed = 0, current_function_anonymous_args = 0
	ldrb	r3, [r0, #32]
	strb	r3, [r0, #8]
	bx	lr
	.align	0
op_DD_0x5e__FP16_z80_cpu_context:
	@ args = 0, pretend = 0, frame = 0
	@ frame_needed = 0, current_function_anonymous_args = 0
	stmfd	sp!, {r4, lr}
	mov	r4, r0
	ldrb	r3, [r4, #88]	@ zero_extendqisi2
	cmp	r3, #0
	beq	.L1298
	ldr	r1, [r4, #136]
	ldr	ip, [r4, #132]
	mov	lr, pc
	bx	ip
	b	.L1299
.L1298:
	ldrh	r1, [r4, #52]	@ movhi
	add	r3, r1, #1
	strh	r3, [r4, #52]	@ movhi   ;; CYGNUS LOCAL nickc
	mov	r1, r1, asl #16
	mov	r0, r4
	mov	r1, r1, lsr #16
	mov	r2, #0
	ldr	r3, [r4, #120]
	ldr	ip, [r4, #116]
	mov	lr, pc
	bx	ip
.L1299:
	strb	r0, [r4, #148]
	tst	r0, #128
	orrne	r3, r0, #128
.L1300:
	ldreqb	r3, [r4, #148]
.L1301:
	strb	r3, [r4, #149]
	ldrsb	r3, [r4, #149]
	ldrh	r2, [r4, #32]	@ movhi
	add	r3, r3, r2
	strh	r3, [r4, #60]	@ movhi   ;; CYGNUS LOCAL nickc
	ldrsb	r1, [r4, #149]
	add	r1, r1, r2
	mov	r1, r1, asl #16
	mov	r0, r4
	mov	r1, r1, lsr #16
	mov	r2, #0
	ldr	r3, [r4, #120]
	ldr	ip, [r4, #116]
	mov	lr, pc
	bx	ip
	strb	r0, [r4, #148]
	strb	r0, [r4, #8]
	ldmfd	sp!, {r4, lr}
	bx	lr
	.align	0
op_DD_0x60__FP16_z80_cpu_context:
	@ args = 0, pretend = 0, frame = 0
	@ frame_needed = 0, current_function_anonymous_args = 0
	ldrb	r3, [r0, #5]
	strb	r3, [r0, #33]
	bx	lr
	.align	0
op_DD_0x61__FP16_z80_cpu_context:
	@ args = 0, pretend = 0, frame = 0
	@ frame_needed = 0, current_function_anonymous_args = 0
	ldrb	r3, [r0, #4]
	strb	r3, [r0, #33]
	bx	lr
	.align	0
op_DD_0x62__FP16_z80_cpu_context:
	@ args = 0, pretend = 0, frame = 0
	@ frame_needed = 0, current_function_anonymous_args = 0
	ldrb	r3, [r0, #9]
	strb	r3, [r0, #33]
	bx	lr
	.align	0
op_DD_0x63__FP16_z80_cpu_context:
	@ args = 0, pretend = 0, frame = 0
	@ frame_needed = 0, current_function_anonymous_args = 0
	ldrb	r3, [r0, #8]
	strb	r3, [r0, #33]
	bx	lr
	.align	0
op_DD_0x64__FP16_z80_cpu_context:
	@ args = 0, pretend = 0, frame = 0
	@ frame_needed = 0, current_function_anonymous_args = 0
	bx	lr
	.align	0
op_DD_0x65__FP16_z80_cpu_context:
	@ args = 0, pretend = 0, frame = 0
	@ frame_needed = 0, current_function_anonymous_args = 0
	ldrb	r3, [r0, #32]
	strb	r3, [r0, #33]
	bx	lr
	.align	0
op_DD_0x66__FP16_z80_cpu_context:
	@ args = 0, pretend = 0, frame = 0
	@ frame_needed = 0, current_function_anonymous_args = 0
	stmfd	sp!, {r4, lr}
	mov	r4, r0
	ldrb	r3, [r4, #88]	@ zero_extendqisi2
	cmp	r3, #0
	beq	.L1316
	ldr	r1, [r4, #136]
	ldr	ip, [r4, #132]
	mov	lr, pc
	bx	ip
	b	.L1317
.L1316:
	ldrh	r1, [r4, #52]	@ movhi
	add	r3, r1, #1
	strh	r3, [r4, #52]	@ movhi   ;; CYGNUS LOCAL nickc
	mov	r1, r1, asl #16
	mov	r0, r4
	mov	r1, r1, lsr #16
	mov	r2, #0
	ldr	r3, [r4, #120]
	ldr	ip, [r4, #116]
	mov	lr, pc
	bx	ip
.L1317:
	strb	r0, [r4, #148]
	tst	r0, #128
	orrne	r3, r0, #128
.L1318:
	ldreqb	r3, [r4, #148]
.L1319:
	strb	r3, [r4, #149]
	ldrsb	r3, [r4, #149]
	ldrh	r2, [r4, #32]	@ movhi
	add	r3, r3, r2
	strh	r3, [r4, #60]	@ movhi   ;; CYGNUS LOCAL nickc
	ldrsb	r1, [r4, #149]
	add	r1, r1, r2
	mov	r1, r1, asl #16
	mov	r0, r4
	mov	r1, r1, lsr #16
	mov	r2, #0
	ldr	r3, [r4, #120]
	ldr	ip, [r4, #116]
	mov	lr, pc
	bx	ip
	strb	r0, [r4, #148]
	strb	r0, [r4, #13]
	ldmfd	sp!, {r4, lr}
	bx	lr
	.align	0
op_DD_0x67__FP16_z80_cpu_context:
	@ args = 0, pretend = 0, frame = 0
	@ frame_needed = 0, current_function_anonymous_args = 0
	ldrb	r3, [r0, #1]
	strb	r3, [r0, #33]
	bx	lr
	.align	0
op_DD_0x68__FP16_z80_cpu_context:
	@ args = 0, pretend = 0, frame = 0
	@ frame_needed = 0, current_function_anonymous_args = 0
	ldrb	r3, [r0, #5]
	strb	r3, [r0, #32]
	bx	lr
	.align	0
op_DD_0x69__FP16_z80_cpu_context:
	@ args = 0, pretend = 0, frame = 0
	@ frame_needed = 0, current_function_anonymous_args = 0
	ldrb	r3, [r0, #4]
	strb	r3, [r0, #32]
	bx	lr
	.align	0
op_DD_0x6a__FP16_z80_cpu_context:
	@ args = 0, pretend = 0, frame = 0
	@ frame_needed = 0, current_function_anonymous_args = 0
	ldrb	r3, [r0, #9]
	strb	r3, [r0, #32]
	bx	lr
	.align	0
op_DD_0x6b__FP16_z80_cpu_context:
	@ args = 0, pretend = 0, frame = 0
	@ frame_needed = 0, current_function_anonymous_args = 0
	ldrb	r3, [r0, #8]
	strb	r3, [r0, #32]
	bx	lr
	.align	0
op_DD_0x6c__FP16_z80_cpu_context:
	@ args = 0, pretend = 0, frame = 0
	@ frame_needed = 0, current_function_anonymous_args = 0
	ldrb	r3, [r0, #33]
	strb	r3, [r0, #32]
	bx	lr
	.align	0
op_DD_0x6d__FP16_z80_cpu_context:
	@ args = 0, pretend = 0, frame = 0
	@ frame_needed = 0, current_function_anonymous_args = 0
	bx	lr
	.align	0
op_DD_0x6e__FP16_z80_cpu_context:
	@ args = 0, pretend = 0, frame = 0
	@ frame_needed = 0, current_function_anonymous_args = 0
	stmfd	sp!, {r4, lr}
	mov	r4, r0
	ldrb	r3, [r4, #88]	@ zero_extendqisi2
	cmp	r3, #0
	beq	.L1336
	ldr	r1, [r4, #136]
	ldr	ip, [r4, #132]
	mov	lr, pc
	bx	ip
	b	.L1337
.L1336:
	ldrh	r1, [r4, #52]	@ movhi
	add	r3, r1, #1
	strh	r3, [r4, #52]	@ movhi   ;; CYGNUS LOCAL nickc
	mov	r1, r1, asl #16
	mov	r0, r4
	mov	r1, r1, lsr #16
	mov	r2, #0
	ldr	r3, [r4, #120]
	ldr	ip, [r4, #116]
	mov	lr, pc
	bx	ip
.L1337:
	strb	r0, [r4, #148]
	tst	r0, #128
	orrne	r3, r0, #128
.L1338:
	ldreqb	r3, [r4, #148]
.L1339:
	strb	r3, [r4, #149]
	ldrsb	r3, [r4, #149]
	ldrh	r2, [r4, #32]	@ movhi
	add	r3, r3, r2
	strh	r3, [r4, #60]	@ movhi   ;; CYGNUS LOCAL nickc
	ldrsb	r1, [r4, #149]
	add	r1, r1, r2
	mov	r1, r1, asl #16
	mov	r0, r4
	mov	r1, r1, lsr #16
	mov	r2, #0
	ldr	r3, [r4, #120]
	ldr	ip, [r4, #116]
	mov	lr, pc
	bx	ip
	strb	r0, [r4, #148]
	strb	r0, [r4, #12]
	ldmfd	sp!, {r4, lr}
	bx	lr
	.align	0
op_DD_0x6f__FP16_z80_cpu_context:
	@ args = 0, pretend = 0, frame = 0
	@ frame_needed = 0, current_function_anonymous_args = 0
	ldrb	r3, [r0, #1]
	strb	r3, [r0, #32]
	bx	lr
	.align	0
op_DD_0x70__FP16_z80_cpu_context:
	@ args = 0, pretend = 0, frame = 0
	@ frame_needed = 0, current_function_anonymous_args = 0
	stmfd	sp!, {r4, lr}
	mov	r4, r0
	ldrb	r3, [r4, #88]	@ zero_extendqisi2
	cmp	r3, #0
	beq	.L1344
	ldr	r1, [r4, #136]
	ldr	ip, [r4, #132]
	mov	lr, pc
	bx	ip
	b	.L1345
.L1344:
	ldrh	r1, [r4, #52]	@ movhi
	add	r3, r1, #1
	strh	r3, [r4, #52]	@ movhi   ;; CYGNUS LOCAL nickc
	mov	r1, r1, asl #16
	mov	r0, r4
	mov	r1, r1, lsr #16
	mov	r2, #0
	ldr	r3, [r4, #120]
	ldr	ip, [r4, #116]
	mov	lr, pc
	bx	ip
.L1345:
	strb	r0, [r4, #148]
	tst	r0, #128
	orrne	r3, r0, #128
.L1346:
	ldreqb	r3, [r4, #148]
.L1347:
	strb	r3, [r4, #149]
	ldrsb	r3, [r4, #149]
	ldrh	r2, [r4, #32]	@ movhi
	add	r3, r3, r2
	strh	r3, [r4, #60]	@ movhi   ;; CYGNUS LOCAL nickc
	ldrb	r3, [r4, #5]
	strb	r3, [r4, #148]
	ldrsb	r1, [r4, #149]
	add	r1, r1, r2
	mov	r1, r1, asl #16
	mov	r0, r4
	mov	r1, r1, lsr #16
	ldrb	r2, [r4, #148]	@ zero_extendqisi2
	ldr	r3, [r4, #128]
	ldr	ip, [r4, #124]
	mov	lr, pc
	bx	ip
	ldmfd	sp!, {r4, lr}
	bx	lr
	.align	0
op_DD_0x71__FP16_z80_cpu_context:
	@ args = 0, pretend = 0, frame = 0
	@ frame_needed = 0, current_function_anonymous_args = 0
	stmfd	sp!, {r4, lr}
	mov	r4, r0
	ldrb	r3, [r4, #88]	@ zero_extendqisi2
	cmp	r3, #0
	beq	.L1350
	ldr	r1, [r4, #136]
	ldr	ip, [r4, #132]
	mov	lr, pc
	bx	ip
	b	.L1351
.L1350:
	ldrh	r1, [r4, #52]	@ movhi
	add	r3, r1, #1
	strh	r3, [r4, #52]	@ movhi   ;; CYGNUS LOCAL nickc
	mov	r1, r1, asl #16
	mov	r0, r4
	mov	r1, r1, lsr #16
	mov	r2, #0
	ldr	r3, [r4, #120]
	ldr	ip, [r4, #116]
	mov	lr, pc
	bx	ip
.L1351:
	strb	r0, [r4, #148]
	tst	r0, #128
	orrne	r3, r0, #128
.L1352:
	ldreqb	r3, [r4, #148]
.L1353:
	strb	r3, [r4, #149]
	ldrsb	r3, [r4, #149]
	ldrh	r2, [r4, #32]	@ movhi
	add	r3, r3, r2
	strh	r3, [r4, #60]	@ movhi   ;; CYGNUS LOCAL nickc
	ldrb	r3, [r4, #4]
	strb	r3, [r4, #148]
	ldrsb	r1, [r4, #149]
	add	r1, r1, r2
	mov	r1, r1, asl #16
	mov	r0, r4
	mov	r1, r1, lsr #16
	ldrb	r2, [r4, #148]	@ zero_extendqisi2
	ldr	r3, [r4, #128]
	ldr	ip, [r4, #124]
	mov	lr, pc
	bx	ip
	ldmfd	sp!, {r4, lr}
	bx	lr
	.align	0
op_DD_0x72__FP16_z80_cpu_context:
	@ args = 0, pretend = 0, frame = 0
	@ frame_needed = 0, current_function_anonymous_args = 0
	stmfd	sp!, {r4, lr}
	mov	r4, r0
	ldrb	r3, [r4, #88]	@ zero_extendqisi2
	cmp	r3, #0
	beq	.L1356
	ldr	r1, [r4, #136]
	ldr	ip, [r4, #132]
	mov	lr, pc
	bx	ip
	b	.L1357
.L1356:
	ldrh	r1, [r4, #52]	@ movhi
	add	r3, r1, #1
	strh	r3, [r4, #52]	@ movhi   ;; CYGNUS LOCAL nickc
	mov	r1, r1, asl #16
	mov	r0, r4
	mov	r1, r1, lsr #16
	mov	r2, #0
	ldr	r3, [r4, #120]
	ldr	ip, [r4, #116]
	mov	lr, pc
	bx	ip
.L1357:
	strb	r0, [r4, #148]
	tst	r0, #128
	orrne	r3, r0, #128
.L1358:
	ldreqb	r3, [r4, #148]
.L1359:
	strb	r3, [r4, #149]
	ldrsb	r3, [r4, #149]
	ldrh	r2, [r4, #32]	@ movhi
	add	r3, r3, r2
	strh	r3, [r4, #60]	@ movhi   ;; CYGNUS LOCAL nickc
	ldrb	r3, [r4, #9]
	strb	r3, [r4, #148]
	ldrsb	r1, [r4, #149]
	add	r1, r1, r2
	mov	r1, r1, asl #16
	mov	r0, r4
	mov	r1, r1, lsr #16
	ldrb	r2, [r4, #148]	@ zero_extendqisi2
	ldr	r3, [r4, #128]
	ldr	ip, [r4, #124]
	mov	lr, pc
	bx	ip
	ldmfd	sp!, {r4, lr}
	bx	lr
	.align	0
op_DD_0x73__FP16_z80_cpu_context:
	@ args = 0, pretend = 0, frame = 0
	@ frame_needed = 0, current_function_anonymous_args = 0
	stmfd	sp!, {r4, lr}
	mov	r4, r0
	ldrb	r3, [r4, #88]	@ zero_extendqisi2
	cmp	r3, #0
	beq	.L1362
	ldr	r1, [r4, #136]
	ldr	ip, [r4, #132]
	mov	lr, pc
	bx	ip
	b	.L1363
.L1362:
	ldrh	r1, [r4, #52]	@ movhi
	add	r3, r1, #1
	strh	r3, [r4, #52]	@ movhi   ;; CYGNUS LOCAL nickc
	mov	r1, r1, asl #16
	mov	r0, r4
	mov	r1, r1, lsr #16
	mov	r2, #0
	ldr	r3, [r4, #120]
	ldr	ip, [r4, #116]
	mov	lr, pc
	bx	ip
.L1363:
	strb	r0, [r4, #148]
	tst	r0, #128
	orrne	r3, r0, #128
.L1364:
	ldreqb	r3, [r4, #148]
.L1365:
	strb	r3, [r4, #149]
	ldrsb	r3, [r4, #149]
	ldrh	r2, [r4, #32]	@ movhi
	add	r3, r3, r2
	strh	r3, [r4, #60]	@ movhi   ;; CYGNUS LOCAL nickc
	ldrb	r3, [r4, #8]
	strb	r3, [r4, #148]
	ldrsb	r1, [r4, #149]
	add	r1, r1, r2
	mov	r1, r1, asl #16
	mov	r0, r4
	mov	r1, r1, lsr #16
	ldrb	r2, [r4, #148]	@ zero_extendqisi2
	ldr	r3, [r4, #128]
	ldr	ip, [r4, #124]
	mov	lr, pc
	bx	ip
	ldmfd	sp!, {r4, lr}
	bx	lr
	.align	0
op_DD_0x74__FP16_z80_cpu_context:
	@ args = 0, pretend = 0, frame = 0
	@ frame_needed = 0, current_function_anonymous_args = 0
	stmfd	sp!, {r4, lr}
	mov	r4, r0
	ldrb	r3, [r4, #88]	@ zero_extendqisi2
	cmp	r3, #0
	beq	.L1368
	ldr	r1, [r4, #136]
	ldr	ip, [r4, #132]
	mov	lr, pc
	bx	ip
	b	.L1369
.L1368:
	ldrh	r1, [r4, #52]	@ movhi
	add	r3, r1, #1
	strh	r3, [r4, #52]	@ movhi   ;; CYGNUS LOCAL nickc
	mov	r1, r1, asl #16
	mov	r0, r4
	mov	r1, r1, lsr #16
	mov	r2, #0
	ldr	r3, [r4, #120]
	ldr	ip, [r4, #116]
	mov	lr, pc
	bx	ip
.L1369:
	strb	r0, [r4, #148]
	tst	r0, #128
	orrne	r3, r0, #128
.L1370:
	ldreqb	r3, [r4, #148]
.L1371:
	strb	r3, [r4, #149]
	ldrsb	r3, [r4, #149]
	ldrh	r2, [r4, #32]	@ movhi
	add	r3, r3, r2
	strh	r3, [r4, #60]	@ movhi   ;; CYGNUS LOCAL nickc
	ldrb	r3, [r4, #13]
	strb	r3, [r4, #148]
	ldrsb	r1, [r4, #149]
	add	r1, r1, r2
	mov	r1, r1, asl #16
	mov	r0, r4
	mov	r1, r1, lsr #16
	ldrb	r2, [r4, #148]	@ zero_extendqisi2
	ldr	r3, [r4, #128]
	ldr	ip, [r4, #124]
	mov	lr, pc
	bx	ip
	ldmfd	sp!, {r4, lr}
	bx	lr
	.align	0
op_DD_0x75__FP16_z80_cpu_context:
	@ args = 0, pretend = 0, frame = 0
	@ frame_needed = 0, current_function_anonymous_args = 0
	stmfd	sp!, {r4, lr}
	mov	r4, r0
	ldrb	r3, [r4, #88]	@ zero_extendqisi2
	cmp	r3, #0
	beq	.L1374
	ldr	r1, [r4, #136]
	ldr	ip, [r4, #132]
	mov	lr, pc
	bx	ip
	b	.L1375
.L1374:
	ldrh	r1, [r4, #52]	@ movhi
	add	r3, r1, #1
	strh	r3, [r4, #52]	@ movhi   ;; CYGNUS LOCAL nickc
	mov	r1, r1, asl #16
	mov	r0, r4
	mov	r1, r1, lsr #16
	mov	r2, #0
	ldr	r3, [r4, #120]
	ldr	ip, [r4, #116]
	mov	lr, pc
	bx	ip
.L1375:
	strb	r0, [r4, #148]
	tst	r0, #128
	orrne	r3, r0, #128
.L1376:
	ldreqb	r3, [r4, #148]
.L1377:
	strb	r3, [r4, #149]
	ldrsb	r3, [r4, #149]
	ldrh	r2, [r4, #32]	@ movhi
	add	r3, r3, r2
	strh	r3, [r4, #60]	@ movhi   ;; CYGNUS LOCAL nickc
	ldrb	r3, [r4, #12]
	strb	r3, [r4, #148]
	ldrsb	r1, [r4, #149]
	add	r1, r1, r2
	mov	r1, r1, asl #16
	mov	r0, r4
	mov	r1, r1, lsr #16
	ldrb	r2, [r4, #148]	@ zero_extendqisi2
	ldr	r3, [r4, #128]
	ldr	ip, [r4, #124]
	mov	lr, pc
	bx	ip
	ldmfd	sp!, {r4, lr}
	bx	lr
	.align	0
op_DD_0x77__FP16_z80_cpu_context:
	@ args = 0, pretend = 0, frame = 0
	@ frame_needed = 0, current_function_anonymous_args = 0
	stmfd	sp!, {r4, lr}
	mov	r4, r0
	ldrb	r3, [r4, #88]	@ zero_extendqisi2
	cmp	r3, #0
	beq	.L1380
	ldr	r1, [r4, #136]
	ldr	ip, [r4, #132]
	mov	lr, pc
	bx	ip
	b	.L1381
.L1380:
	ldrh	r1, [r4, #52]	@ movhi
	add	r3, r1, #1
	strh	r3, [r4, #52]	@ movhi   ;; CYGNUS LOCAL nickc
	mov	r1, r1, asl #16
	mov	r0, r4
	mov	r1, r1, lsr #16
	mov	r2, #0
	ldr	r3, [r4, #120]
	ldr	ip, [r4, #116]
	mov	lr, pc
	bx	ip
.L1381:
	strb	r0, [r4, #148]
	tst	r0, #128
	orrne	r3, r0, #128
.L1382:
	ldreqb	r3, [r4, #148]
.L1383:
	strb	r3, [r4, #149]
	ldrsb	r3, [r4, #149]
	ldrh	r2, [r4, #32]	@ movhi
	add	r3, r3, r2
	strh	r3, [r4, #60]	@ movhi   ;; CYGNUS LOCAL nickc
	ldrb	r3, [r4, #1]
	strb	r3, [r4, #148]
	ldrsb	r1, [r4, #149]
	add	r1, r1, r2
	mov	r1, r1, asl #16
	mov	r0, r4
	mov	r1, r1, lsr #16
	ldrb	r2, [r4, #148]	@ zero_extendqisi2
	ldr	r3, [r4, #128]
	ldr	ip, [r4, #124]
	mov	lr, pc
	bx	ip
	ldmfd	sp!, {r4, lr}
	bx	lr
	.align	0
op_DD_0x7c__FP16_z80_cpu_context:
	@ args = 0, pretend = 0, frame = 0
	@ frame_needed = 0, current_function_anonymous_args = 0
	ldrb	r3, [r0, #33]
	strb	r3, [r0, #1]
	bx	lr
	.align	0
op_DD_0x7d__FP16_z80_cpu_context:
	@ args = 0, pretend = 0, frame = 0
	@ frame_needed = 0, current_function_anonymous_args = 0
	ldrb	r3, [r0, #32]
	strb	r3, [r0, #1]
	bx	lr
	.align	0
op_DD_0x7e__FP16_z80_cpu_context:
	@ args = 0, pretend = 0, frame = 0
	@ frame_needed = 0, current_function_anonymous_args = 0
	stmfd	sp!, {r4, lr}
	mov	r4, r0
	ldrb	r3, [r4, #88]	@ zero_extendqisi2
	cmp	r3, #0
	beq	.L1390
	ldr	r1, [r4, #136]
	ldr	ip, [r4, #132]
	mov	lr, pc
	bx	ip
	b	.L1391
.L1390:
	ldrh	r1, [r4, #52]	@ movhi
	add	r3, r1, #1
	strh	r3, [r4, #52]	@ movhi   ;; CYGNUS LOCAL nickc
	mov	r1, r1, asl #16
	mov	r0, r4
	mov	r1, r1, lsr #16
	mov	r2, #0
	ldr	r3, [r4, #120]
	ldr	ip, [r4, #116]
	mov	lr, pc
	bx	ip
.L1391:
	strb	r0, [r4, #148]
	tst	r0, #128
	orrne	r3, r0, #128
.L1392:
	ldreqb	r3, [r4, #148]
.L1393:
	strb	r3, [r4, #149]
	ldrsb	r3, [r4, #149]
	ldrh	r2, [r4, #32]	@ movhi
	add	r3, r3, r2
	strh	r3, [r4, #60]	@ movhi   ;; CYGNUS LOCAL nickc
	ldrsb	r1, [r4, #149]
	add	r1, r1, r2
	mov	r1, r1, asl #16
	mov	r0, r4
	mov	r1, r1, lsr #16
	mov	r2, #0
	ldr	r3, [r4, #120]
	ldr	ip, [r4, #116]
	mov	lr, pc
	bx	ip
	strb	r0, [r4, #148]
	strb	r0, [r4, #1]
	ldmfd	sp!, {r4, lr}
	bx	lr
	.align	0
op_DD_0x84__FP16_z80_cpu_context:
	@ args = 0, pretend = 0, frame = 0
	@ frame_needed = 0, current_function_anonymous_args = 0
	stmfd	sp!, {lr}
	mov	ip, r0
	ldrb	r0, [ip, #1]	@ zero_extendqisi2
	ldrb	r3, [ip, #33]	@ zero_extendqisi2
	add	r0, r0, r3
	ldrb	r2, [ip, #1]
	and	r2, r2, #136
	ldrb	r3, [ip, #33]
	and	r3, r3, #136
	mov	r3, r3, lsr #2
	orr	r3, r3, r2, lsr #3
	and	r2, r0, #136
	orr	r3, r3, r2, lsr #1
	strb	r0, [ip, #1]
	ldr	r1, .L1400
	and	r2, r3, #7
	ldrb	lr, [r1, r2]	@ zero_extendqisi2
	ldr	r2, .L1400+4
	ldrb	r1, [r2, r3, lsr #4]	@ zero_extendqisi2
	ldr	r2, .L1400+8
	ldrb	r3, [ip, #1]	@ zero_extendqisi2
	ldrb	r2, [r2, r3]	@ zero_extendqisi2
	tst	r0, #256
	beq	.L1396
	orr	r3, r1, #1
	orr	r3, lr, r3
	b	.L1399
.L1401:
	.align	0
.L1400:
	.word	halfcarry_add_table
	.word	overflow_add_table
	.word	sz53_table
.L1396:
	orr	r3, lr, r1
.L1399:
	orr	r3, r3, r2
	strb	r3, [ip, #0]
	ldmfd	sp!, {ip}
	bx	ip
	.align	0
op_DD_0x85__FP16_z80_cpu_context:
	@ args = 0, pretend = 0, frame = 0
	@ frame_needed = 0, current_function_anonymous_args = 0
	stmfd	sp!, {lr}
	mov	ip, r0
	ldrb	r0, [ip, #1]	@ zero_extendqisi2
	ldrb	r3, [ip, #32]	@ zero_extendqisi2
	add	r0, r0, r3
	ldrb	r2, [ip, #1]
	and	r2, r2, #136
	ldrb	r3, [ip, #32]
	and	r3, r3, #136
	mov	r3, r3, lsr #2
	orr	r3, r3, r2, lsr #3
	and	r2, r0, #136
	orr	r3, r3, r2, lsr #1
	strb	r0, [ip, #1]
	ldr	r1, .L1407
	and	r2, r3, #7
	ldrb	lr, [r1, r2]	@ zero_extendqisi2
	ldr	r2, .L1407+4
	ldrb	r1, [r2, r3, lsr #4]	@ zero_extendqisi2
	ldr	r2, .L1407+8
	ldrb	r3, [ip, #1]	@ zero_extendqisi2
	ldrb	r2, [r2, r3]	@ zero_extendqisi2
	tst	r0, #256
	beq	.L1403
	orr	r3, r1, #1
	orr	r3, lr, r3
	b	.L1406
.L1408:
	.align	0
.L1407:
	.word	halfcarry_add_table
	.word	overflow_add_table
	.word	sz53_table
.L1403:
	orr	r3, lr, r1
.L1406:
	orr	r3, r3, r2
	strb	r3, [ip, #0]
	ldmfd	sp!, {ip}
	bx	ip
	.align	0
op_DD_0x86__FP16_z80_cpu_context:
	@ args = 0, pretend = 0, frame = 0
	@ frame_needed = 0, current_function_anonymous_args = 0
	stmfd	sp!, {r4, lr}
	mov	r4, r0
	ldrb	r3, [r4, #88]	@ zero_extendqisi2
	cmp	r3, #0
	beq	.L1410
	ldr	r1, [r4, #136]
	ldr	ip, [r4, #132]
	mov	lr, pc
	bx	ip
	b	.L1411
.L1410:
	ldrh	r1, [r4, #52]	@ movhi
	add	r3, r1, #1
	strh	r3, [r4, #52]	@ movhi   ;; CYGNUS LOCAL nickc
	mov	r1, r1, asl #16
	mov	r0, r4
	mov	r1, r1, lsr #16
	mov	r2, #0
	ldr	r3, [r4, #120]
	ldr	ip, [r4, #116]
	mov	lr, pc
	bx	ip
.L1411:
	strb	r0, [r4, #148]
	tst	r0, #128
	orrne	r3, r0, #128
.L1412:
	ldreqb	r3, [r4, #148]
.L1413:
	strb	r3, [r4, #149]
	ldrsb	r3, [r4, #149]
	ldrh	r2, [r4, #32]	@ movhi
	add	r3, r3, r2
	strh	r3, [r4, #60]	@ movhi   ;; CYGNUS LOCAL nickc
	ldrsb	r1, [r4, #149]
	add	r1, r1, r2
	mov	r1, r1, asl #16
	mov	r0, r4
	mov	r1, r1, lsr #16
	mov	r2, #0
	ldr	r3, [r4, #120]
	ldr	ip, [r4, #116]
	mov	lr, pc
	bx	ip
	strb	r0, [r4, #148]
	ldrb	r1, [r4, #1]	@ zero_extendqisi2
	ldrb	r3, [r4, #148]	@ zero_extendqisi2
	add	r1, r1, r3
	ldrb	r3, [r4, #1]
	and	r3, r3, #136
	and	r0, r0, #136
	mov	r0, r0, lsr #2
	orr	r0, r0, r3, lsr #3
	and	r3, r1, #136
	orr	r0, r0, r3, lsr #1
	strb	r1, [r4, #1]
	ldr	r2, .L1418
	and	r3, r0, #7
	ldrb	ip, [r2, r3]	@ zero_extendqisi2
	ldr	r3, .L1418+4
	ldrb	r0, [r3, r0, lsr #4]	@ zero_extendqisi2
	ldr	r2, .L1418+8
	ldrb	r3, [r4, #1]	@ zero_extendqisi2
	ldrb	r2, [r2, r3]	@ zero_extendqisi2
	tst	r1, #256
	beq	.L1414
	orr	r3, r0, #1
	orr	r3, ip, r3
	b	.L1417
.L1419:
	.align	0
.L1418:
	.word	halfcarry_add_table
	.word	overflow_add_table
	.word	sz53_table
.L1414:
	orr	r3, ip, r0
.L1417:
	orr	r3, r3, r2
	strb	r3, [r4, #0]
	ldmfd	sp!, {r4, lr}
	bx	lr
	.align	0
op_DD_0x8c__FP16_z80_cpu_context:
	@ args = 0, pretend = 0, frame = 0
	@ frame_needed = 0, current_function_anonymous_args = 0
	stmfd	sp!, {lr}
	mov	ip, r0
	ldrb	r2, [ip, #1]	@ zero_extendqisi2
	ldrb	r3, [ip, #33]	@ zero_extendqisi2
	add	r2, r2, r3
	ldrb	r1, [ip, #0]
	and	r1, r1, #1
	add	r1, r1, r2
	ldrb	r2, [ip, #1]
	and	r2, r2, #136
	ldrb	r3, [ip, #33]
	and	r3, r3, #136
	mov	r3, r3, lsr #2
	orr	r3, r3, r2, lsr #3
	and	r2, r1, #136
	orr	r3, r3, r2, lsr #1
	strb	r1, [ip, #1]
	ldr	r0, .L1425
	and	r2, r3, #7
	ldrb	lr, [r0, r2]	@ zero_extendqisi2
	ldr	r2, .L1425+4
	ldrb	r0, [r2, r3, lsr #4]	@ zero_extendqisi2
	ldr	r2, .L1425+8
	ldrb	r3, [ip, #1]	@ zero_extendqisi2
	ldrb	r2, [r2, r3]	@ zero_extendqisi2
	tst	r1, #256
	beq	.L1421
	orr	r3, r0, #1
	orr	r3, lr, r3
	b	.L1424
.L1426:
	.align	0
.L1425:
	.word	halfcarry_add_table
	.word	overflow_add_table
	.word	sz53_table
.L1421:
	orr	r3, lr, r0
.L1424:
	orr	r3, r3, r2
	strb	r3, [ip, #0]
	ldmfd	sp!, {ip}
	bx	ip
	.align	0
op_DD_0x8d__FP16_z80_cpu_context:
	@ args = 0, pretend = 0, frame = 0
	@ frame_needed = 0, current_function_anonymous_args = 0
	stmfd	sp!, {lr}
	mov	ip, r0
	ldrb	r2, [ip, #1]	@ zero_extendqisi2
	ldrb	r3, [ip, #32]	@ zero_extendqisi2
	add	r2, r2, r3
	ldrb	r1, [ip, #0]
	and	r1, r1, #1
	add	r1, r1, r2
	ldrb	r2, [ip, #1]
	and	r2, r2, #136
	ldrb	r3, [ip, #32]
	and	r3, r3, #136
	mov	r3, r3, lsr #2
	orr	r3, r3, r2, lsr #3
	and	r2, r1, #136
	orr	r3, r3, r2, lsr #1
	strb	r1, [ip, #1]
	ldr	r0, .L1432
	and	r2, r3, #7
	ldrb	lr, [r0, r2]	@ zero_extendqisi2
	ldr	r2, .L1432+4
	ldrb	r0, [r2, r3, lsr #4]	@ zero_extendqisi2
	ldr	r2, .L1432+8
	ldrb	r3, [ip, #1]	@ zero_extendqisi2
	ldrb	r2, [r2, r3]	@ zero_extendqisi2
	tst	r1, #256
	beq	.L1428
	orr	r3, r0, #1
	orr	r3, lr, r3
	b	.L1431
.L1433:
	.align	0
.L1432:
	.word	halfcarry_add_table
	.word	overflow_add_table
	.word	sz53_table
.L1428:
	orr	r3, lr, r0
.L1431:
	orr	r3, r3, r2
	strb	r3, [ip, #0]
	ldmfd	sp!, {ip}
	bx	ip
	.align	0
op_DD_0x8e__FP16_z80_cpu_context:
	@ args = 0, pretend = 0, frame = 0
	@ frame_needed = 0, current_function_anonymous_args = 0
	stmfd	sp!, {r4, lr}
	mov	r4, r0
	ldrb	r3, [r4, #88]	@ zero_extendqisi2
	cmp	r3, #0
	beq	.L1435
	ldr	r1, [r4, #136]
	ldr	ip, [r4, #132]
	mov	lr, pc
	bx	ip
	b	.L1436
.L1435:
	ldrh	r1, [r4, #52]	@ movhi
	add	r3, r1, #1
	strh	r3, [r4, #52]	@ movhi   ;; CYGNUS LOCAL nickc
	mov	r1, r1, asl #16
	mov	r0, r4
	mov	r1, r1, lsr #16
	mov	r2, #0
	ldr	r3, [r4, #120]
	ldr	ip, [r4, #116]
	mov	lr, pc
	bx	ip
.L1436:
	strb	r0, [r4, #148]
	tst	r0, #128
	orrne	r3, r0, #128
.L1437:
	ldreqb	r3, [r4, #148]
.L1438:
	strb	r3, [r4, #149]
	ldrsb	r3, [r4, #149]
	ldrh	r2, [r4, #32]	@ movhi
	add	r3, r3, r2
	strh	r3, [r4, #60]	@ movhi   ;; CYGNUS LOCAL nickc
	ldrsb	r1, [r4, #149]
	add	r1, r1, r2
	mov	r1, r1, asl #16
	mov	r0, r4
	mov	r1, r1, lsr #16
	mov	r2, #0
	ldr	r3, [r4, #120]
	ldr	ip, [r4, #116]
	mov	lr, pc
	bx	ip
	strb	r0, [r4, #148]
	ldrb	r2, [r4, #1]	@ zero_extendqisi2
	ldrb	r3, [r4, #148]	@ zero_extendqisi2
	add	r2, r2, r3
	ldrb	r1, [r4, #0]
	and	r1, r1, #1
	add	r1, r1, r2
	ldrb	r3, [r4, #1]
	and	r3, r3, #136
	and	r0, r0, #136
	mov	r0, r0, lsr #2
	orr	r0, r0, r3, lsr #3
	and	r3, r1, #136
	orr	r0, r0, r3, lsr #1
	strb	r1, [r4, #1]
	ldr	r2, .L1443
	and	r3, r0, #7
	ldrb	ip, [r2, r3]	@ zero_extendqisi2
	ldr	r3, .L1443+4
	ldrb	r0, [r3, r0, lsr #4]	@ zero_extendqisi2
	ldr	r2, .L1443+8
	ldrb	r3, [r4, #1]	@ zero_extendqisi2
	ldrb	r2, [r2, r3]	@ zero_extendqisi2
	tst	r1, #256
	beq	.L1439
	orr	r3, r0, #1
	orr	r3, ip, r3
	b	.L1442
.L1444:
	.align	0
.L1443:
	.word	halfcarry_add_table
	.word	overflow_add_table
	.word	sz53_table
.L1439:
	orr	r3, ip, r0
.L1442:
	orr	r3, r3, r2
	strb	r3, [r4, #0]
	ldmfd	sp!, {r4, lr}
	bx	lr
	.align	0
op_DD_0x94__FP16_z80_cpu_context:
	@ args = 0, pretend = 0, frame = 0
	@ frame_needed = 0, current_function_anonymous_args = 0
	stmfd	sp!, {lr}
	mov	ip, r0
	ldrb	r2, [ip, #1]	@ zero_extendqisi2
	ldrb	r3, [ip, #33]	@ zero_extendqisi2
	rsb	r2, r3, r2
	mov	r2, r2, asl #16
	ldrb	r1, [ip, #1]
	and	r1, r1, #136
	ldrb	r3, [ip, #33]
	and	r3, r3, #136
	mov	r3, r3, lsr #2
	orr	r3, r3, r1, lsr #3
	mov	r0, r2, lsr #16
	and	r2, r2, #8912896
	orr	r3, r3, r2, lsr #17
	strb	r0, [ip, #1]
	ldr	r1, .L1450
	and	r2, r3, #7
	ldrb	lr, [r1, r2]	@ zero_extendqisi2
	ldr	r2, .L1450+4
	ldrb	r1, [r2, r3, lsr #4]	@ zero_extendqisi2
	ldr	r2, .L1450+8
	ldrb	r3, [ip, #1]	@ zero_extendqisi2
	ldrb	r2, [r2, r3]	@ zero_extendqisi2
	tst	r0, #256
	beq	.L1446
	orr	r3, r1, #3
	b	.L1449
.L1451:
	.align	0
.L1450:
	.word	halfcarry_sub_table
	.word	overflow_sub_table
	.word	sz53_table
.L1446:
	orr	r3, r1, #2
.L1449:
	orr	r3, lr, r3
	orr	r3, r3, r2
	strb	r3, [ip, #0]
	ldmfd	sp!, {ip}
	bx	ip
	.align	0
op_DD_0x95__FP16_z80_cpu_context:
	@ args = 0, pretend = 0, frame = 0
	@ frame_needed = 0, current_function_anonymous_args = 0
	stmfd	sp!, {lr}
	mov	ip, r0
	ldrb	r2, [ip, #1]	@ zero_extendqisi2
	ldrb	r3, [ip, #32]	@ zero_extendqisi2
	rsb	r2, r3, r2
	mov	r2, r2, asl #16
	ldrb	r1, [ip, #1]
	and	r1, r1, #136
	ldrb	r3, [ip, #32]
	and	r3, r3, #136
	mov	r3, r3, lsr #2
	orr	r3, r3, r1, lsr #3
	mov	r0, r2, lsr #16
	and	r2, r2, #8912896
	orr	r3, r3, r2, lsr #17
	strb	r0, [ip, #1]
	ldr	r1, .L1457
	and	r2, r3, #7
	ldrb	lr, [r1, r2]	@ zero_extendqisi2
	ldr	r2, .L1457+4
	ldrb	r1, [r2, r3, lsr #4]	@ zero_extendqisi2
	ldr	r2, .L1457+8
	ldrb	r3, [ip, #1]	@ zero_extendqisi2
	ldrb	r2, [r2, r3]	@ zero_extendqisi2
	tst	r0, #256
	beq	.L1453
	orr	r3, r1, #3
	b	.L1456
.L1458:
	.align	0
.L1457:
	.word	halfcarry_sub_table
	.word	overflow_sub_table
	.word	sz53_table
.L1453:
	orr	r3, r1, #2
.L1456:
	orr	r3, lr, r3
	orr	r3, r3, r2
	strb	r3, [ip, #0]
	ldmfd	sp!, {ip}
	bx	ip
	.align	0
op_DD_0x96__FP16_z80_cpu_context:
	@ args = 0, pretend = 0, frame = 0
	@ frame_needed = 0, current_function_anonymous_args = 0
	stmfd	sp!, {r4, lr}
	mov	r4, r0
	ldrb	r3, [r4, #88]	@ zero_extendqisi2
	cmp	r3, #0
	beq	.L1460
	ldr	r1, [r4, #136]
	ldr	ip, [r4, #132]
	mov	lr, pc
	bx	ip
	b	.L1461
.L1460:
	ldrh	r1, [r4, #52]	@ movhi
	add	r3, r1, #1
	strh	r3, [r4, #52]	@ movhi   ;; CYGNUS LOCAL nickc
	mov	r1, r1, asl #16
	mov	r0, r4
	mov	r1, r1, lsr #16
	mov	r2, #0
	ldr	r3, [r4, #120]
	ldr	ip, [r4, #116]
	mov	lr, pc
	bx	ip
.L1461:
	strb	r0, [r4, #148]
	tst	r0, #128
	orrne	r3, r0, #128
.L1462:
	ldreqb	r3, [r4, #148]
.L1463:
	strb	r3, [r4, #149]
	ldrsb	r3, [r4, #149]
	ldrh	r2, [r4, #32]	@ movhi
	add	r3, r3, r2
	strh	r3, [r4, #60]	@ movhi   ;; CYGNUS LOCAL nickc
	ldrsb	r1, [r4, #149]
	add	r1, r1, r2
	mov	r1, r1, asl #16
	mov	r0, r4
	mov	r1, r1, lsr #16
	mov	r2, #0
	ldr	r3, [r4, #120]
	ldr	ip, [r4, #116]
	mov	lr, pc
	bx	ip
	strb	r0, [r4, #148]
	ldrb	r3, [r4, #1]	@ zero_extendqisi2
	ldrb	r2, [r4, #148]	@ zero_extendqisi2
	rsb	r3, r2, r3
	mov	r3, r3, asl #16
	ldrb	r2, [r4, #1]
	and	r2, r2, #136
	and	r0, r0, #136
	mov	r0, r0, lsr #2
	orr	r0, r0, r2, lsr #3
	mov	r1, r3, lsr #16
	and	r3, r3, #8912896
	orr	r0, r0, r3, lsr #17
	strb	r1, [r4, #1]
	ldr	r2, .L1468
	and	r3, r0, #7
	ldrb	ip, [r2, r3]	@ zero_extendqisi2
	ldr	r3, .L1468+4
	ldrb	r0, [r3, r0, lsr #4]	@ zero_extendqisi2
	ldr	r2, .L1468+8
	ldrb	r3, [r4, #1]	@ zero_extendqisi2
	ldrb	r2, [r2, r3]	@ zero_extendqisi2
	tst	r1, #256
	beq	.L1464
	orr	r3, r0, #3
	b	.L1467
.L1469:
	.align	0
.L1468:
	.word	halfcarry_sub_table
	.word	overflow_sub_table
	.word	sz53_table
.L1464:
	orr	r3, r0, #2
.L1467:
	orr	r3, ip, r3
	orr	r3, r3, r2
	strb	r3, [r4, #0]
	ldmfd	sp!, {r4, lr}
	bx	lr
	.align	0
op_DD_0x9c__FP16_z80_cpu_context:
	@ args = 0, pretend = 0, frame = 0
	@ frame_needed = 0, current_function_anonymous_args = 0
	stmfd	sp!, {lr}
	mov	ip, r0
	ldrb	r2, [ip, #1]	@ zero_extendqisi2
	ldrb	r3, [ip, #33]	@ zero_extendqisi2
	rsb	r2, r3, r2
	ldrb	r3, [ip, #0]
	and	r3, r3, #1
	rsb	r2, r3, r2
	mov	r2, r2, asl #16
	ldrb	r1, [ip, #1]
	and	r1, r1, #136
	ldrb	r3, [ip, #33]
	and	r3, r3, #136
	mov	r3, r3, lsr #2
	orr	r3, r3, r1, lsr #3
	mov	r0, r2, lsr #16
	and	r2, r2, #8912896
	orr	r3, r3, r2, lsr #17
	strb	r0, [ip, #1]
	ldr	r1, .L1475
	and	r2, r3, #7
	ldrb	lr, [r1, r2]	@ zero_extendqisi2
	ldr	r2, .L1475+4
	ldrb	r1, [r2, r3, lsr #4]	@ zero_extendqisi2
	ldr	r2, .L1475+8
	ldrb	r3, [ip, #1]	@ zero_extendqisi2
	ldrb	r2, [r2, r3]	@ zero_extendqisi2
	tst	r0, #256
	beq	.L1471
	orr	r3, r1, #3
	b	.L1474
.L1476:
	.align	0
.L1475:
	.word	halfcarry_sub_table
	.word	overflow_sub_table
	.word	sz53_table
.L1471:
	orr	r3, r1, #2
.L1474:
	orr	r3, lr, r3
	orr	r3, r3, r2
	strb	r3, [ip, #0]
	ldmfd	sp!, {ip}
	bx	ip
	.align	0
op_DD_0x9d__FP16_z80_cpu_context:
	@ args = 0, pretend = 0, frame = 0
	@ frame_needed = 0, current_function_anonymous_args = 0
	stmfd	sp!, {lr}
	mov	ip, r0
	ldrb	r2, [ip, #1]	@ zero_extendqisi2
	ldrb	r3, [ip, #32]	@ zero_extendqisi2
	rsb	r2, r3, r2
	ldrb	r3, [ip, #0]
	and	r3, r3, #1
	rsb	r2, r3, r2
	mov	r2, r2, asl #16
	ldrb	r1, [ip, #1]
	and	r1, r1, #136
	ldrb	r3, [ip, #32]
	and	r3, r3, #136
	mov	r3, r3, lsr #2
	orr	r3, r3, r1, lsr #3
	mov	r0, r2, lsr #16
	and	r2, r2, #8912896
	orr	r3, r3, r2, lsr #17
	strb	r0, [ip, #1]
	ldr	r1, .L1482
	and	r2, r3, #7
	ldrb	lr, [r1, r2]	@ zero_extendqisi2
	ldr	r2, .L1482+4
	ldrb	r1, [r2, r3, lsr #4]	@ zero_extendqisi2
	ldr	r2, .L1482+8
	ldrb	r3, [ip, #1]	@ zero_extendqisi2
	ldrb	r2, [r2, r3]	@ zero_extendqisi2
	tst	r0, #256
	beq	.L1478
	orr	r3, r1, #3
	b	.L1481
.L1483:
	.align	0
.L1482:
	.word	halfcarry_sub_table
	.word	overflow_sub_table
	.word	sz53_table
.L1478:
	orr	r3, r1, #2
.L1481:
	orr	r3, lr, r3
	orr	r3, r3, r2
	strb	r3, [ip, #0]
	ldmfd	sp!, {ip}
	bx	ip
	.align	0
op_DD_0x9e__FP16_z80_cpu_context:
	@ args = 0, pretend = 0, frame = 0
	@ frame_needed = 0, current_function_anonymous_args = 0
	stmfd	sp!, {r4, lr}
	mov	r4, r0
	ldrb	r3, [r4, #88]	@ zero_extendqisi2
	cmp	r3, #0
	beq	.L1485
	ldr	r1, [r4, #136]
	ldr	ip, [r4, #132]
	mov	lr, pc
	bx	ip
	b	.L1486
.L1485:
	ldrh	r1, [r4, #52]	@ movhi
	add	r3, r1, #1
	strh	r3, [r4, #52]	@ movhi   ;; CYGNUS LOCAL nickc
	mov	r1, r1, asl #16
	mov	r0, r4
	mov	r1, r1, lsr #16
	mov	r2, #0
	ldr	r3, [r4, #120]
	ldr	ip, [r4, #116]
	mov	lr, pc
	bx	ip
.L1486:
	strb	r0, [r4, #148]
	tst	r0, #128
	orrne	r3, r0, #128
.L1487:
	ldreqb	r3, [r4, #148]
.L1488:
	strb	r3, [r4, #149]
	ldrsb	r3, [r4, #149]
	ldrh	r2, [r4, #32]	@ movhi
	add	r3, r3, r2
	strh	r3, [r4, #60]	@ movhi   ;; CYGNUS LOCAL nickc
	ldrsb	r1, [r4, #149]
	add	r1, r1, r2
	mov	r1, r1, asl #16
	mov	r0, r4
	mov	r1, r1, lsr #16
	mov	r2, #0
	ldr	r3, [r4, #120]
	ldr	ip, [r4, #116]
	mov	lr, pc
	bx	ip
	strb	r0, [r4, #148]
	ldrb	r2, [r4, #1]	@ zero_extendqisi2
	ldrb	r3, [r4, #148]	@ zero_extendqisi2
	rsb	r2, r3, r2
	ldrb	r3, [r4, #0]
	and	r3, r3, #1
	rsb	r2, r3, r2
	mov	r2, r2, asl #16
	ldrb	r3, [r4, #1]
	and	r3, r3, #136
	and	r0, r0, #136
	mov	r0, r0, lsr #2
	orr	r0, r0, r3, lsr #3
	mov	r1, r2, lsr #16
	and	r2, r2, #8912896
	orr	r0, r0, r2, lsr #17
	strb	r1, [r4, #1]
	ldr	r2, .L1493
	and	r3, r0, #7
	ldrb	ip, [r2, r3]	@ zero_extendqisi2
	ldr	r3, .L1493+4
	ldrb	r0, [r3, r0, lsr #4]	@ zero_extendqisi2
	ldr	r2, .L1493+8
	ldrb	r3, [r4, #1]	@ zero_extendqisi2
	ldrb	r2, [r2, r3]	@ zero_extendqisi2
	tst	r1, #256
	beq	.L1489
	orr	r3, r0, #3
	b	.L1492
.L1494:
	.align	0
.L1493:
	.word	halfcarry_sub_table
	.word	overflow_sub_table
	.word	sz53_table
.L1489:
	orr	r3, r0, #2
.L1492:
	orr	r3, ip, r3
	orr	r3, r3, r2
	strb	r3, [r4, #0]
	ldmfd	sp!, {r4, lr}
	bx	lr
	.align	0
op_DD_0xa4__FP16_z80_cpu_context:
	@ args = 0, pretend = 0, frame = 0
	@ frame_needed = 0, current_function_anonymous_args = 0
	ldrb	r3, [r0, #1]
	ldrb	r2, [r0, #33]
	and	r3, r3, r2
	strb	r3, [r0, #1]
	ldr	r2, .L1497
	ldrb	r3, [r0, #1]	@ zero_extendqisi2
	ldrb	r3, [r2, r3]
	orr	r3, r3, #16
	strb	r3, [r0, #0]
	bx	lr
.L1498:
	.align	0
.L1497:
	.word	sz53p_table
	.align	0
op_DD_0xa5__FP16_z80_cpu_context:
	@ args = 0, pretend = 0, frame = 0
	@ frame_needed = 0, current_function_anonymous_args = 0
	ldrb	r3, [r0, #1]
	ldrb	r2, [r0, #32]
	and	r3, r3, r2
	strb	r3, [r0, #1]
	ldr	r2, .L1501
	ldrb	r3, [r0, #1]	@ zero_extendqisi2
	ldrb	r3, [r2, r3]
	orr	r3, r3, #16
	strb	r3, [r0, #0]
	bx	lr
.L1502:
	.align	0
.L1501:
	.word	sz53p_table
	.align	0
op_DD_0xa6__FP16_z80_cpu_context:
	@ args = 0, pretend = 0, frame = 0
	@ frame_needed = 0, current_function_anonymous_args = 0
	stmfd	sp!, {r4, lr}
	mov	r4, r0
	ldrb	r3, [r4, #88]	@ zero_extendqisi2
	cmp	r3, #0
	beq	.L1504
	ldr	r1, [r4, #136]
	ldr	ip, [r4, #132]
	mov	lr, pc
	bx	ip
	b	.L1505
.L1504:
	ldrh	r1, [r4, #52]	@ movhi
	add	r3, r1, #1
	strh	r3, [r4, #52]	@ movhi   ;; CYGNUS LOCAL nickc
	mov	r1, r1, asl #16
	mov	r0, r4
	mov	r1, r1, lsr #16
	mov	r2, #0
	ldr	r3, [r4, #120]
	ldr	ip, [r4, #116]
	mov	lr, pc
	bx	ip
.L1505:
	strb	r0, [r4, #148]
	tst	r0, #128
	orrne	r3, r0, #128
.L1506:
	ldreqb	r3, [r4, #148]
.L1507:
	strb	r3, [r4, #149]
	ldrsb	r3, [r4, #149]
	ldrh	r2, [r4, #32]	@ movhi
	add	r3, r3, r2
	strh	r3, [r4, #60]	@ movhi   ;; CYGNUS LOCAL nickc
	ldrsb	r1, [r4, #149]
	add	r1, r1, r2
	mov	r1, r1, asl #16
	mov	r0, r4
	mov	r1, r1, lsr #16
	mov	r2, #0
	ldr	r3, [r4, #120]
	ldr	ip, [r4, #116]
	mov	lr, pc
	bx	ip
	strb	r0, [r4, #148]
	ldrb	r3, [r4, #1]
	and	r3, r3, r0
	strb	r3, [r4, #1]
	ldr	r2, .L1510
	ldrb	r3, [r4, #1]	@ zero_extendqisi2
	ldrb	r3, [r2, r3]
	orr	r3, r3, #16
	strb	r3, [r4, #0]
	b	.L1509
.L1511:
	.align	0
.L1510:
	.word	sz53p_table
.L1509:
	ldmfd	sp!, {r4, lr}
	bx	lr
	.align	0
op_DD_0xac__FP16_z80_cpu_context:
	@ args = 0, pretend = 0, frame = 0
	@ frame_needed = 0, current_function_anonymous_args = 0
	ldrb	r3, [r0, #1]
	ldrb	r2, [r0, #33]
	eor	r3, r3, r2
	strb	r3, [r0, #1]
	ldr	r2, .L1514
	ldrb	r3, [r0, #1]	@ zero_extendqisi2
	ldrb	r3, [r2, r3]
	strb	r3, [r0, #0]
	bx	lr
.L1515:
	.align	0
.L1514:
	.word	sz53p_table
	.align	0
op_DD_0xad__FP16_z80_cpu_context:
	@ args = 0, pretend = 0, frame = 0
	@ frame_needed = 0, current_function_anonymous_args = 0
	ldrb	r3, [r0, #1]
	ldrb	r2, [r0, #32]
	eor	r3, r3, r2
	strb	r3, [r0, #1]
	ldr	r2, .L1518
	ldrb	r3, [r0, #1]	@ zero_extendqisi2
	ldrb	r3, [r2, r3]
	strb	r3, [r0, #0]
	bx	lr
.L1519:
	.align	0
.L1518:
	.word	sz53p_table
	.align	0
op_DD_0xae__FP16_z80_cpu_context:
	@ args = 0, pretend = 0, frame = 0
	@ frame_needed = 0, current_function_anonymous_args = 0
	stmfd	sp!, {r4, lr}
	mov	r4, r0
	ldrb	r3, [r4, #88]	@ zero_extendqisi2
	cmp	r3, #0
	beq	.L1521
	ldr	r1, [r4, #136]
	ldr	ip, [r4, #132]
	mov	lr, pc
	bx	ip
	b	.L1522
.L1521:
	ldrh	r1, [r4, #52]	@ movhi
	add	r3, r1, #1
	strh	r3, [r4, #52]	@ movhi   ;; CYGNUS LOCAL nickc
	mov	r1, r1, asl #16
	mov	r0, r4
	mov	r1, r1, lsr #16
	mov	r2, #0
	ldr	r3, [r4, #120]
	ldr	ip, [r4, #116]
	mov	lr, pc
	bx	ip
.L1522:
	strb	r0, [r4, #148]
	tst	r0, #128
	orrne	r3, r0, #128
.L1523:
	ldreqb	r3, [r4, #148]
.L1524:
	strb	r3, [r4, #149]
	ldrsb	r3, [r4, #149]
	ldrh	r2, [r4, #32]	@ movhi
	add	r3, r3, r2
	strh	r3, [r4, #60]	@ movhi   ;; CYGNUS LOCAL nickc
	ldrsb	r1, [r4, #149]
	add	r1, r1, r2
	mov	r1, r1, asl #16
	mov	r0, r4
	mov	r1, r1, lsr #16
	mov	r2, #0
	ldr	r3, [r4, #120]
	ldr	ip, [r4, #116]
	mov	lr, pc
	bx	ip
	strb	r0, [r4, #148]
	ldrb	r3, [r4, #1]
	eor	r3, r3, r0
	strb	r3, [r4, #1]
	ldr	r2, .L1527
	ldrb	r3, [r4, #1]	@ zero_extendqisi2
	ldrb	r3, [r2, r3]
	strb	r3, [r4, #0]
	b	.L1526
.L1528:
	.align	0
.L1527:
	.word	sz53p_table
.L1526:
	ldmfd	sp!, {r4, lr}
	bx	lr
	.align	0
op_DD_0xb4__FP16_z80_cpu_context:
	@ args = 0, pretend = 0, frame = 0
	@ frame_needed = 0, current_function_anonymous_args = 0
	ldrb	r3, [r0, #1]
	ldrb	r2, [r0, #33]
	orr	r3, r3, r2
	strb	r3, [r0, #1]
	ldr	r2, .L1531
	ldrb	r3, [r0, #1]	@ zero_extendqisi2
	ldrb	r3, [r2, r3]
	strb	r3, [r0, #0]
	bx	lr
.L1532:
	.align	0
.L1531:
	.word	sz53p_table
	.align	0
op_DD_0xb5__FP16_z80_cpu_context:
	@ args = 0, pretend = 0, frame = 0
	@ frame_needed = 0, current_function_anonymous_args = 0
	ldrb	r3, [r0, #1]
	ldrb	r2, [r0, #32]
	orr	r3, r3, r2
	strb	r3, [r0, #1]
	ldr	r2, .L1535
	ldrb	r3, [r0, #1]	@ zero_extendqisi2
	ldrb	r3, [r2, r3]
	strb	r3, [r0, #0]
	bx	lr
.L1536:
	.align	0
.L1535:
	.word	sz53p_table
	.align	0
op_DD_0xb6__FP16_z80_cpu_context:
	@ args = 0, pretend = 0, frame = 0
	@ frame_needed = 0, current_function_anonymous_args = 0
	stmfd	sp!, {r4, lr}
	mov	r4, r0
	ldrb	r3, [r4, #88]	@ zero_extendqisi2
	cmp	r3, #0
	beq	.L1538
	ldr	r1, [r4, #136]
	ldr	ip, [r4, #132]
	mov	lr, pc
	bx	ip
	b	.L1539
.L1538:
	ldrh	r1, [r4, #52]	@ movhi
	add	r3, r1, #1
	strh	r3, [r4, #52]	@ movhi   ;; CYGNUS LOCAL nickc
	mov	r1, r1, asl #16
	mov	r0, r4
	mov	r1, r1, lsr #16
	mov	r2, #0
	ldr	r3, [r4, #120]
	ldr	ip, [r4, #116]
	mov	lr, pc
	bx	ip
.L1539:
	strb	r0, [r4, #148]
	tst	r0, #128
	orrne	r3, r0, #128
.L1540:
	ldreqb	r3, [r4, #148]
.L1541:
	strb	r3, [r4, #149]
	ldrsb	r3, [r4, #149]
	ldrh	r2, [r4, #32]	@ movhi
	add	r3, r3, r2
	strh	r3, [r4, #60]	@ movhi   ;; CYGNUS LOCAL nickc
	ldrsb	r1, [r4, #149]
	add	r1, r1, r2
	mov	r1, r1, asl #16
	mov	r0, r4
	mov	r1, r1, lsr #16
	mov	r2, #0
	ldr	r3, [r4, #120]
	ldr	ip, [r4, #116]
	mov	lr, pc
	bx	ip
	strb	r0, [r4, #148]
	ldrb	r3, [r4, #1]
	orr	r3, r3, r0
	strb	r3, [r4, #1]
	ldr	r2, .L1544
	ldrb	r3, [r4, #1]	@ zero_extendqisi2
	ldrb	r3, [r2, r3]
	strb	r3, [r4, #0]
	b	.L1543
.L1545:
	.align	0
.L1544:
	.word	sz53p_table
.L1543:
	ldmfd	sp!, {r4, lr}
	bx	lr
	.align	0
op_DD_0xbc__FP16_z80_cpu_context:
	@ args = 0, pretend = 0, frame = 0
	@ frame_needed = 0, current_function_anonymous_args = 0
	stmfd	sp!, {r4, lr}
	mov	r4, r0
	ldrb	r1, [r4, #1]	@ zero_extendqisi2
	ldrb	r3, [r4, #33]	@ zero_extendqisi2
	rsb	r1, r3, r1
	mov	r1, r1, asl #16
	ldrb	r2, [r4, #1]
	and	r2, r2, #136
	ldrb	ip, [r4, #33]
	and	r3, ip, #136
	mov	r3, r3, lsr #2
	orr	r3, r3, r2, lsr #3
	and	r2, r1, #8912896
	orr	r3, r3, r2, lsr #17
	ldr	r0, .L1553
	and	r2, r3, #7
	ldrb	lr, [r0, r2]	@ zero_extendqisi2
	ldr	r2, .L1553+4
	ldrb	r2, [r2, r3, lsr #4]	@ zero_extendqisi2
	and	ip, ip, #40
	and	r3, r1, #8388608
	mov	r0, r3, lsr #16
	mov	r3, r1, lsr #16
	tst	r1, #16777216
	bne	.L1547
	cmp	r3, #0
	bne	.L1549
	orr	r3, r2, #66
	b	.L1552
.L1554:
	.align	0
.L1553:
	.word	halfcarry_sub_table
	.word	overflow_sub_table
.L1549:
	orr	r3, r2, #2
	b	.L1552
.L1547:
	orr	r3, r2, #3
.L1552:
	orr	r3, lr, r3
	orr	r3, r3, ip
	orr	r3, r3, r0
	strb	r3, [r4, #0]
	ldmfd	sp!, {r4, lr}
	bx	lr
	.align	0
op_DD_0xbd__FP16_z80_cpu_context:
	@ args = 0, pretend = 0, frame = 0
	@ frame_needed = 0, current_function_anonymous_args = 0
	stmfd	sp!, {r4, lr}
	mov	r4, r0
	ldrb	r1, [r4, #1]	@ zero_extendqisi2
	ldrb	r3, [r4, #32]	@ zero_extendqisi2
	rsb	r1, r3, r1
	mov	r1, r1, asl #16
	ldrb	r2, [r4, #1]
	and	r2, r2, #136
	ldrb	ip, [r4, #32]
	and	r3, ip, #136
	mov	r3, r3, lsr #2
	orr	r3, r3, r2, lsr #3
	and	r2, r1, #8912896
	orr	r3, r3, r2, lsr #17
	ldr	r0, .L1562
	and	r2, r3, #7
	ldrb	lr, [r0, r2]	@ zero_extendqisi2
	ldr	r2, .L1562+4
	ldrb	r2, [r2, r3, lsr #4]	@ zero_extendqisi2
	and	ip, ip, #40
	and	r3, r1, #8388608
	mov	r0, r3, lsr #16
	mov	r3, r1, lsr #16
	tst	r1, #16777216
	bne	.L1556
	cmp	r3, #0
	bne	.L1558
	orr	r3, r2, #66
	b	.L1561
.L1563:
	.align	0
.L1562:
	.word	halfcarry_sub_table
	.word	overflow_sub_table
.L1558:
	orr	r3, r2, #2
	b	.L1561
.L1556:
	orr	r3, r2, #3
.L1561:
	orr	r3, lr, r3
	orr	r3, r3, ip
	orr	r3, r3, r0
	strb	r3, [r4, #0]
	ldmfd	sp!, {r4, lr}
	bx	lr
	.align	0
op_DD_0xbe__FP16_z80_cpu_context:
	@ args = 0, pretend = 0, frame = 0
	@ frame_needed = 0, current_function_anonymous_args = 0
	stmfd	sp!, {r4, lr}
	mov	r4, r0
	ldrb	r3, [r4, #88]	@ zero_extendqisi2
	cmp	r3, #0
	beq	.L1565
	ldr	r1, [r4, #136]
	ldr	ip, [r4, #132]
	mov	lr, pc
	bx	ip
	b	.L1566
.L1565:
	ldrh	r1, [r4, #52]	@ movhi
	add	r3, r1, #1
	strh	r3, [r4, #52]	@ movhi   ;; CYGNUS LOCAL nickc
	mov	r1, r1, asl #16
	mov	r0, r4
	mov	r1, r1, lsr #16
	mov	r2, #0
	ldr	r3, [r4, #120]
	ldr	ip, [r4, #116]
	mov	lr, pc
	bx	ip
.L1566:
	strb	r0, [r4, #148]
	tst	r0, #128
	orrne	r3, r0, #128
.L1567:
	ldreqb	r3, [r4, #148]
.L1568:
	strb	r3, [r4, #149]
	ldrsb	r3, [r4, #149]
	ldrh	r2, [r4, #32]	@ movhi
	add	r3, r3, r2
	strh	r3, [r4, #60]	@ movhi   ;; CYGNUS LOCAL nickc
	ldrsb	r1, [r4, #149]
	add	r1, r1, r2
	mov	r1, r1, asl #16
	mov	r0, r4
	mov	r1, r1, lsr #16
	mov	r2, #0
	ldr	r3, [r4, #120]
	ldr	ip, [r4, #116]
	mov	lr, pc
	bx	ip
	strb	r0, [r4, #148]
	ldrb	r1, [r4, #1]	@ zero_extendqisi2
	ldrb	r3, [r4, #148]	@ zero_extendqisi2
	rsb	r1, r3, r1
	mov	r1, r1, asl #16
	ldrb	r2, [r4, #1]
	and	r2, r2, #136
	and	r3, r0, #136
	mov	r3, r3, lsr #2
	orr	r3, r3, r2, lsr #3
	and	r2, r1, #8912896
	orr	r3, r3, r2, lsr #17
	ldr	ip, .L1575
	and	r2, r3, #7
	ldrb	lr, [ip, r2]	@ zero_extendqisi2
	ldr	r2, .L1575+4
	ldrb	r2, [r2, r3, lsr #4]	@ zero_extendqisi2
	and	r0, r0, #40
	and	r3, r1, #8388608
	mov	ip, r3, lsr #16
	mov	r3, r1, lsr #16
	tst	r1, #16777216
	bne	.L1569
	cmp	r3, #0
	bne	.L1571
	orr	r3, r2, #66
	b	.L1574
.L1576:
	.align	0
.L1575:
	.word	halfcarry_sub_table
	.word	overflow_sub_table
.L1571:
	orr	r3, r2, #2
	b	.L1574
.L1569:
	orr	r3, r2, #3
.L1574:
	orr	r3, lr, r3
	orr	r3, r3, r0
	orr	r3, r3, ip
	strb	r3, [r4, #0]
	ldmfd	sp!, {r4, lr}
	bx	lr
	.align	0
op_DD_0xe1__FP16_z80_cpu_context:
	@ args = 0, pretend = 0, frame = 0
	@ frame_needed = 0, current_function_anonymous_args = 0
	stmfd	sp!, {r4, r5, lr}
	mov	r4, r0
	ldrh	r1, [r4, #48]	@ movhi
	add	r3, r1, #1
	strh	r3, [r4, #48]	@ movhi   ;; CYGNUS LOCAL nickc
	mov	r1, r1, asl #16
	mov	r1, r1, lsr #16
	mov	r2, #0
	ldr	r3, [r4, #120]
	ldr	ip, [r4, #116]
	mov	lr, pc
	bx	ip
	and	r0, r0, #255
	bic	r3, r5, #255
	orr	r5, r0, r3
	ldrh	r1, [r4, #48]	@ movhi
	add	r3, r1, #1
	strh	r3, [r4, #48]	@ movhi   ;; CYGNUS LOCAL nickc
	mov	r1, r1, asl #16
	mov	r0, r4
	mov	r1, r1, lsr #16
	mov	r2, #0
	ldr	r3, [r4, #120]
	ldr	ip, [r4, #116]
	mov	lr, pc
	bx	ip
	and	r0, r0, #255
	bic	r3, r5, #65280
	orr	r5, r3, r0, asl #8
	strh	r5, [r4, #32]	@ movhi   ;; CYGNUS LOCAL nickc
	ldmfd	sp!, {r4, r5, lr}
	bx	lr
	.align	0
op_DD_0xe3__FP16_z80_cpu_context:
	@ args = 0, pretend = 0, frame = 0
	@ frame_needed = 0, current_function_anonymous_args = 0
	stmfd	sp!, {r4, r5, r6, r7, lr}
	mov	r4, r0
	add	r5, r4, #48
	ldrb	r3, [r4, #48]	@ zero_extendqisi2
	ldrb	r1, [r5, #1]	@ zero_extendqisi2
	orr	r1, r3, r1, asl #8
	mov	r2, #0
	ldr	r3, [r4, #120]
	ldr	ip, [r4, #116]
	mov	lr, pc
	bx	ip
	strb	r0, [r4, #140]
	ldrh	r1, [r4, #48]	@ movhi
	add	r1, r1, #1
	mov	r1, r1, asl #16
	mov	r0, r4
	mov	r1, r1, lsr #16
	mov	r2, #0
	ldr	r3, [r4, #120]
	ldr	ip, [r4, #116]
	mov	lr, pc
	bx	ip
	strb	r0, [r4, #141]
	ldrb	r3, [r4, #140]	@ zero_extendqisi2
	ldrb	r2, [r4, #141]	@ zero_extendqisi2
	orr	r3, r3, r2, asl #8
	ldrb	r6, [r4, #32]	@ zero_extendqisi2
	ldrb	r7, [r4, #33]	@ zero_extendqisi2
	orr	r7, r6, r7, asl #8
	strh	r7, [r4, #140]	@ movhi   ;; CYGNUS LOCAL nickc
	strh	r3, [r4, #32]	@ movhi   ;; CYGNUS LOCAL nickc
	strh	r3, [r4, #60]	@ movhi   ;; CYGNUS LOCAL nickc
	ldrb	r3, [r4, #48]	@ zero_extendqisi2
	ldrb	r1, [r5, #1]	@ zero_extendqisi2
	mov	r0, r4
	orr	r1, r3, r1, asl #8
	ldrb	r2, [r4, #140]	@ zero_extendqisi2
	ldr	r3, [r4, #128]
	ldr	ip, [r4, #124]
	mov	lr, pc
	bx	ip
	ldrh	r1, [r4, #48]	@ movhi
	add	r1, r1, #1
	mov	r1, r1, asl #16
	mov	r0, r4
	mov	r1, r1, lsr #16
	ldrb	r2, [r4, #141]	@ zero_extendqisi2
	ldr	r3, [r4, #128]
	ldr	ip, [r4, #124]
	mov	lr, pc
	bx	ip
	ldmfd	sp!, {r4, r5, r6, r7, lr}
	bx	lr
	.align	0
op_DD_0xe5__FP16_z80_cpu_context:
	@ args = 0, pretend = 0, frame = 0
	@ frame_needed = 0, current_function_anonymous_args = 0
	stmfd	sp!, {r4, r5, lr}
	mov	r4, r0
	ldrh	r3, [r4, #32]	@ movhi
	mov	r3, r3, asl #16
	orr	r3, r3, r5, lsr #16
	mov	r5, r3, ror #16
	ldrh	r1, [r4, #48]	@ movhi
	sub	r1, r1, #1
	strh	r1, [r4, #48]	@ movhi   ;; CYGNUS LOCAL nickc
	mov	r1, r1, asl #16
	mov	r2, r5, lsr #8
	mov	r1, r1, lsr #16
	and	r2, r2, #255
	ldr	r3, [r4, #128]
	ldr	ip, [r4, #124]
	mov	lr, pc
	bx	ip
	ldrh	r1, [r4, #48]	@ movhi
	sub	r1, r1, #1
	strh	r1, [r4, #48]	@ movhi   ;; CYGNUS LOCAL nickc
	mov	r1, r1, asl #16
	and	r2, r5, #255
	mov	r0, r4
	mov	r1, r1, lsr #16
	ldr	r3, [r4, #128]
	ldr	ip, [r4, #124]
	mov	lr, pc
	bx	ip
	ldmfd	sp!, {r4, r5, lr}
	bx	lr
	.align	0
op_DD_0xe9__FP16_z80_cpu_context:
	@ args = 0, pretend = 0, frame = 0
	@ frame_needed = 0, current_function_anonymous_args = 0
	ldrb	r2, [r0, #32]	@ zero_extendqisi2
	ldrb	r3, [r0, #33]	@ zero_extendqisi2
	orr	r3, r2, r3, asl #8
	strh	r3, [r0, #52]	@ movhi   ;; CYGNUS LOCAL nickc
	bx	lr
	.align	0
op_DD_0xf9__FP16_z80_cpu_context:
	@ args = 0, pretend = 0, frame = 0
	@ frame_needed = 0, current_function_anonymous_args = 0
	ldrb	r2, [r0, #32]	@ zero_extendqisi2
	ldrb	r3, [r0, #33]	@ zero_extendqisi2
	orr	r3, r2, r3, asl #8
	strh	r3, [r0, #48]	@ movhi   ;; CYGNUS LOCAL nickc
	bx	lr
.data
	.align	0
opcodes_dd:
	.word	0
	.word	0
	.word	0
	.word	0
	.word	0
	.word	0
	.word	0
	.word	0
	.word	0
	.word	op_DD_0x09__FP16_z80_cpu_context
	.word	0
	.word	0
	.word	0
	.word	0
	.word	0
	.word	0
	.word	0
	.word	0
	.word	0
	.word	0
	.word	0
	.word	0
	.word	0
	.word	0
	.word	0
	.word	op_DD_0x19__FP16_z80_cpu_context
	.word	0
	.word	0
	.word	0
	.word	0
	.word	0
	.word	0
	.word	0
	.word	op_DD_0x21__FP16_z80_cpu_context
	.word	op_DD_0x22__FP16_z80_cpu_context
	.word	op_DD_0x23__FP16_z80_cpu_context
	.word	op_DD_0x24__FP16_z80_cpu_context
	.word	op_DD_0x25__FP16_z80_cpu_context
	.word	op_DD_0x26__FP16_z80_cpu_context
	.word	0
	.word	0
	.word	op_DD_0x29__FP16_z80_cpu_context
	.word	op_DD_0x2a__FP16_z80_cpu_context
	.word	op_DD_0x2b__FP16_z80_cpu_context
	.word	op_DD_0x2c__FP16_z80_cpu_context
	.word	op_DD_0x2d__FP16_z80_cpu_context
	.word	op_DD_0x2e__FP16_z80_cpu_context
	.word	0
	.word	0
	.word	0
	.word	0
	.word	0
	.word	op_DD_0x34__FP16_z80_cpu_context
	.word	op_DD_0x35__FP16_z80_cpu_context
	.word	op_DD_0x36__FP16_z80_cpu_context
	.word	0
	.word	0
	.word	op_DD_0x39__FP16_z80_cpu_context
	.word	0
	.word	0
	.word	0
	.word	0
	.word	0
	.word	0
	.word	0
	.word	0
	.word	0
	.word	0
	.word	op_DD_0x44__FP16_z80_cpu_context
	.word	op_DD_0x45__FP16_z80_cpu_context
	.word	op_DD_0x46__FP16_z80_cpu_context
	.word	0
	.word	0
	.word	0
	.word	0
	.word	0
	.word	op_DD_0x4c__FP16_z80_cpu_context
	.word	op_DD_0x4d__FP16_z80_cpu_context
	.word	op_DD_0x4e__FP16_z80_cpu_context
	.word	0
	.word	0
	.word	0
	.word	0
	.word	0
	.word	op_DD_0x54__FP16_z80_cpu_context
	.word	op_DD_0x55__FP16_z80_cpu_context
	.word	op_DD_0x56__FP16_z80_cpu_context
	.word	0
	.word	0
	.word	0
	.word	0
	.word	0
	.word	op_DD_0x5c__FP16_z80_cpu_context
	.word	op_DD_0x5d__FP16_z80_cpu_context
	.word	op_DD_0x5e__FP16_z80_cpu_context
	.word	0
	.word	op_DD_0x60__FP16_z80_cpu_context
	.word	op_DD_0x61__FP16_z80_cpu_context
	.word	op_DD_0x62__FP16_z80_cpu_context
	.word	op_DD_0x63__FP16_z80_cpu_context
	.word	op_DD_0x64__FP16_z80_cpu_context
	.word	op_DD_0x65__FP16_z80_cpu_context
	.word	op_DD_0x66__FP16_z80_cpu_context
	.word	op_DD_0x67__FP16_z80_cpu_context
	.word	op_DD_0x68__FP16_z80_cpu_context
	.word	op_DD_0x69__FP16_z80_cpu_context
	.word	op_DD_0x6a__FP16_z80_cpu_context
	.word	op_DD_0x6b__FP16_z80_cpu_context
	.word	op_DD_0x6c__FP16_z80_cpu_context
	.word	op_DD_0x6d__FP16_z80_cpu_context
	.word	op_DD_0x6e__FP16_z80_cpu_context
	.word	op_DD_0x6f__FP16_z80_cpu_context
	.word	op_DD_0x70__FP16_z80_cpu_context
	.word	op_DD_0x71__FP16_z80_cpu_context
	.word	op_DD_0x72__FP16_z80_cpu_context
	.word	op_DD_0x73__FP16_z80_cpu_context
	.word	op_DD_0x74__FP16_z80_cpu_context
	.word	op_DD_0x75__FP16_z80_cpu_context
	.word	0
	.word	op_DD_0x77__FP16_z80_cpu_context
	.word	0
	.word	0
	.word	0
	.word	0
	.word	op_DD_0x7c__FP16_z80_cpu_context
	.word	op_DD_0x7d__FP16_z80_cpu_context
	.word	op_DD_0x7e__FP16_z80_cpu_context
	.word	0
	.word	0
	.word	0
	.word	0
	.word	0
	.word	op_DD_0x84__FP16_z80_cpu_context
	.word	op_DD_0x85__FP16_z80_cpu_context
	.word	op_DD_0x86__FP16_z80_cpu_context
	.word	0
	.word	0
	.word	0
	.word	0
	.word	0
	.word	op_DD_0x8c__FP16_z80_cpu_context
	.word	op_DD_0x8d__FP16_z80_cpu_context
	.word	op_DD_0x8e__FP16_z80_cpu_context
	.word	0
	.word	0
	.word	0
	.word	0
	.word	0
	.word	op_DD_0x94__FP16_z80_cpu_context
	.word	op_DD_0x95__FP16_z80_cpu_context
	.word	op_DD_0x96__FP16_z80_cpu_context
	.word	0
	.word	0
	.word	0
	.word	0
	.word	0
	.word	op_DD_0x9c__FP16_z80_cpu_context
	.word	op_DD_0x9d__FP16_z80_cpu_context
	.word	op_DD_0x9e__FP16_z80_cpu_context
	.word	0
	.word	0
	.word	0
	.word	0
	.word	0
	.word	op_DD_0xa4__FP16_z80_cpu_context
	.word	op_DD_0xa5__FP16_z80_cpu_context
	.word	op_DD_0xa6__FP16_z80_cpu_context
	.word	0
	.word	0
	.word	0
	.word	0
	.word	0
	.word	op_DD_0xac__FP16_z80_cpu_context
	.word	op_DD_0xad__FP16_z80_cpu_context
	.word	op_DD_0xae__FP16_z80_cpu_context
	.word	0
	.word	0
	.word	0
	.word	0
	.word	0
	.word	op_DD_0xb4__FP16_z80_cpu_context
	.word	op_DD_0xb5__FP16_z80_cpu_context
	.word	op_DD_0xb6__FP16_z80_cpu_context
	.word	0
	.word	0
	.word	0
	.word	0
	.word	0
	.word	op_DD_0xbc__FP16_z80_cpu_context
	.word	op_DD_0xbd__FP16_z80_cpu_context
	.word	op_DD_0xbe__FP16_z80_cpu_context
	.word	0
	.word	0
	.word	0
	.word	0
	.word	0
	.word	0
	.word	0
	.word	0
	.word	0
	.word	0
	.word	0
	.word	0
	.word	0
	.word	0
	.word	0
	.word	0
	.word	0
	.word	0
	.word	0
	.word	0
	.word	0
	.word	0
	.word	0
	.word	0
	.word	0
	.word	0
	.word	0
	.word	0
	.word	0
	.word	0
	.word	0
	.word	0
	.word	0
	.word	0
	.word	op_DD_0xe1__FP16_z80_cpu_context
	.word	0
	.word	op_DD_0xe3__FP16_z80_cpu_context
	.word	0
	.word	op_DD_0xe5__FP16_z80_cpu_context
	.word	0
	.word	0
	.word	0
	.word	op_DD_0xe9__FP16_z80_cpu_context
	.word	0
	.word	0
	.word	0
	.word	0
	.word	0
	.word	0
	.word	0
	.word	0
	.word	0
	.word	0
	.word	0
	.word	0
	.word	0
	.word	0
	.word	0
	.word	op_DD_0xf9__FP16_z80_cpu_context
	.word	0
	.word	0
	.word	0
	.word	0
	.word	0
	.word	0
.text
	.align	0
op_FD_0x09__FP16_z80_cpu_context:
	@ args = 0, pretend = 0, frame = 0
	@ frame_needed = 0, current_function_anonymous_args = 0
	stmfd	sp!, {lr}
	mov	ip, r0
	ldrb	r1, [ip, #36]	@ zero_extendqisi2
	ldrb	r3, [ip, #37]	@ zero_extendqisi2
	orr	r1, r1, r3, asl #8
	ldrb	r3, [ip, #4]	@ zero_extendqisi2
	ldrb	r2, [ip, #5]	@ zero_extendqisi2
	orr	r3, r3, r2, asl #8
	add	r1, r1, r3
	ldrh	r0, [ip, #36]	@ movhi
	and	r3, r0, #2048
	ldrh	r2, [ip, #4]	@ movhi
	and	r2, r2, #2048
	cmp	r2, #0
	movne	r2, #2
	moveq	r2, #0
	cmp	r3, #0
	orrne	r2, r2, #1
	and	r3, r1, #2048
	mov	r3, r3, lsr #9
	orr	r2, r2, r3
	and	r2, r2, #255
	add	r0, r0, #1
	strh	r0, [ip, #60]	@ movhi   ;; CYGNUS LOCAL nickc
	strh	r1, [ip, #36]	@ movhi   ;; CYGNUS LOCAL nickc
	ldrb	r3, [ip, #0]
	and	lr, r3, #196
	mov	r0, r1, lsr #8
	and	r0, r0, #40
	ldr	r3, .L1592
	ldrb	r2, [r3, r2]	@ zero_extendqisi2
	tst	r1, #65536
	beq	.L1588
	orr	r3, r0, #1
	orr	r1, lr, r3
	b	.L1591
.L1593:
	.align	0
.L1592:
	.word	halfcarry_add_table
.L1588:
	orr	r1, lr, r0
.L1591:
	orr	r1, r1, r2
	strb	r1, [ip, #0]
	ldmfd	sp!, {ip}
	bx	ip
	.align	0
op_FD_0x19__FP16_z80_cpu_context:
	@ args = 0, pretend = 0, frame = 0
