@ Generated by gcc 2.9-psion-98r2 (Symbian build 539) for ARM/pe
	.file	"AbstractAudio.cpp"
.gcc2_compiled.:
	.section .rdata
	.align	0
.LC0:
	.ascii	"%1c%1c%1c%1c\000"
.text
	.align	0
	.global	__13AbstractAudioUlP10AYSongInfo
__13AbstractAudioUlP10AYSongInfo:
	@ args = 0, pretend = 0, frame = 0
	@ frame_needed = 0, current_function_anonymous_args = 0
	stmfd	sp!, {r4, lr}
	mov	r4, r0
	ldr	r3, .L3084
	str	r3, [r4, #16]
	str	r1, [r4, #0]
	str	r2, [r4, #8]
	ldr	r3, .L3084+4
	str	r1, [r2, r3]
	mov	r3, #0
	strb	r3, [r4, #4]
	mov	r0, #208
	bl	__builtin_new
	cmp	r0, #0
	ldrne	r1, [r4, #8]
	blne	__2ayP10AYSongInfo
.L3081:
	str	r0, [r4, #12]
	mov	r0, r4
	b	.L3083
.L3085:
	.align	0
.L3084:
	.word	__vt_13AbstractAudio
	.word	67172
.L3083:
	ldmfd	sp!, {r4, lr}
	bx	lr
	.align	0
	.global	_._13AbstractAudio
_._13AbstractAudio:
	@ args = 0, pretend = 0, frame = 0
	@ frame_needed = 0, current_function_anonymous_args = 0
	stmfd	sp!, {r4, r5, lr}
	mov	r4, r0
	mov	r5, r1
	ldr	r3, .L3094
	str	r3, [r4, #16]
	ldr	r0, [r4, #12]
	cmp	r0, #0
	beq	.L3090
	mov	r1, #3
	bl	_._2ay
	mov	r3, #0
	str	r3, [r4, #12]
.L3090:
	tst	r5, #1
	beq	.L3092
	mov	r0, r4
	bl	__builtin_delete
	b	.L3093
.L3095:
	.align	0
.L3094:
	.word	__vt_13AbstractAudio
.L3093:
.L3092:
	ldmfd	sp!, {r4, r5, lr}
	bx	lr
	.section .text$Delete__t13CleanupDelete1Z11MDataSourcePv,"x"
	.linkonce discard
	.align	0
	.global	Delete__t13CleanupDelete1Z11MDataSourcePv
Delete__t13CleanupDelete1Z11MDataSourcePv:
	@ args = 0, pretend = 0, frame = 0
	@ frame_needed = 0, current_function_anonymous_args = 0
	stmfd	sp!, {lr}
	cmp	r0, #0
	ldmeqfd	sp!, {ip}
	bxeq	ip
	ldr	r3, [r0, #8]
	mov	r1, #3
	ldr	ip, [r3, #8]
	mov	lr, pc
	bx	ip
	ldmfd	sp!, {ip}
	bx	ip
	.section .text$Delete__t13CleanupDelete1Z9MDataSinkPv,"x"
	.linkonce discard
	.align	0
	.global	Delete__t13CleanupDelete1Z9MDataSinkPv
Delete__t13CleanupDelete1Z9MDataSinkPv:
	@ args = 0, pretend = 0, frame = 0
	@ frame_needed = 0, current_function_anonymous_args = 0
	stmfd	sp!, {lr}
	cmp	r0, #0
	ldmeqfd	sp!, {ip}
	bxeq	ip
	ldr	r3, [r0, #8]
	mov	r1, #3
	ldr	ip, [r3, #8]
	mov	lr, pc
	bx	ip
	ldmfd	sp!, {ip}
	bx	ip
	.global	__vt_13AbstractAudio
	.section .rdata$__vt_13AbstractAudio,"w"
	.linkonce same_size
	.align	0
__vt_13AbstractAudio:
	.word	0
	.word	0
	.word	_._13AbstractAudio
	.word	__pure_virtual
	.word	__pure_virtual
	.word	WriteAy__13AbstractAudioUcUc
	.word	ChnlMute__13AbstractAudioUlb
	.word	ChnlMuted__13AbstractAudioUl
	.section .text$ChnlMuted__13AbstractAudioUl,"x"
	.linkonce discard
	.align	0
	.global	ChnlMuted__13AbstractAudioUl
ChnlMuted__13AbstractAudioUl:
	@ args = 0, pretend = 0, frame = 0
	@ frame_needed = 0, current_function_anonymous_args = 0
	ldr	r3, [r0, #12]
	cmp	r3, #0
	moveq	r0, #1
.L3065:
	ldrne	r3, [r0, #12]
	addne	r3, r3, #176
	ldrneb	r0, [r3, r1]
	bx	lr
	.section .text$ChnlMute__13AbstractAudioUlb,"x"
	.linkonce discard
	.align	0
	.global	ChnlMute__13AbstractAudioUlb
ChnlMute__13AbstractAudioUlb:
	@ args = 0, pretend = 0, frame = 0
	@ frame_needed = 0, current_function_anonymous_args = 0
	mov	r3, r2
	ldr	r2, [r0, #12]
	cmp	r2, #0
	addne	r2, r2, #176
	eorne	r3, r3, #1
	strneb	r3, [r2, r1]
	bx	lr
	.section .text$WriteAy__13AbstractAudioUcUc,"x"
	.linkonce discard
	.align	0
	.global	WriteAy__13AbstractAudioUcUc
WriteAy__13AbstractAudioUcUc:
	@ args = 0, pretend = 0, frame = 0
	@ frame_needed = 0, current_function_anonymous_args = 0
	@ I don't think this function clobbers lr
	ldr	r0, [r0, #12]
	and	r1, r1, #255
	and	r2, r2, #255
	b	ayWrite__2ayUcUc
