@ Generated by gcc 2.9-psion-98r2 (Symbian build 539) for ARM/pe
	.file	"ayfly_s60.cpp"
.gcc2_compiled.:
	.section .rdata
	.align	0
.LC0:
	.ascii	"%1c%1c%1c%1c\000"
	.align	0
applicationName.3874:
	.word	9
	.ascii	"a\000y\000f\000l\000y\000_\000s\0006\0000\000\000\000"
.text
	.align	0
	.global	NewApplication__Fv
	.section .drectve
	.ascii " -export:NewApplication__Fv"
.text
NewApplication__Fv:
	@ args = 0, pretend = 0, frame = 0
	@ frame_needed = 0, current_function_anonymous_args = 0
	stmfd	sp!, {lr}
	mov	r0, #556
	bl	__nw__5CBaseUi
	cmp	r0, #0
	ldmeqfd	sp!, {ip}
	bxeq	ip
	ldmfd	sp!, {lr}
	b	__21Cayfly_s60Application
	.align	0
	.global	E32Dll__F10TDllReason
E32Dll__F10TDllReason:
	@ args = 0, pretend = 0, frame = 0
	@ frame_needed = 0, current_function_anonymous_args = 0
	mov	r0, #0
	bx	lr
	.section .text$Delete__t13CleanupDelete1Z11MDataSourcePv,"x"
	.linkonce discard
	.align	0
	.global	Delete__t13CleanupDelete1Z11MDataSourcePv
Delete__t13CleanupDelete1Z11MDataSourcePv:
	@ args = 0, pretend = 0, frame = 0
	@ frame_needed = 0, current_function_anonymous_args = 0
	stmfd	sp!, {lr}
	cmp	r0, #0
	ldmeqfd	sp!, {ip}
	bxeq	ip
	ldr	r3, [r0, #8]
	mov	r1, #3
	ldr	ip, [r3, #8]
	mov	lr, pc
	bx	ip
	ldmfd	sp!, {ip}
	bx	ip
	.section .text$Delete__t13CleanupDelete1Z9MDataSinkPv,"x"
	.linkonce discard
	.align	0
	.global	Delete__t13CleanupDelete1Z9MDataSinkPv
Delete__t13CleanupDelete1Z9MDataSinkPv:
	@ args = 0, pretend = 0, frame = 0
	@ frame_needed = 0, current_function_anonymous_args = 0
	stmfd	sp!, {lr}
	cmp	r0, #0
	ldmeqfd	sp!, {ip}
	bxeq	ip
	ldr	r3, [r0, #8]
	mov	r1, #3
	ldr	ip, [r3, #8]
	mov	lr, pc
	bx	ip
	ldmfd	sp!, {ip}
	bx	ip
