@ Generated by gcc 2.9-psion-98r2 (Symbian build 539) for ARM/pe
	.file	"ayfly_s60AppView.cpp"
.gcc2_compiled.:
	.section .rdata
	.align	0
.LC0:
	.ascii	"%1c%1c%1c%1c\000"
	.align	0
applicationName.3874:
	.word	9
	.ascii	"a\000y\000f\000l\000y\000_\000s\0006\0000\000\000\000"
.text
	.align	0
	.global	NewL__17Cayfly_s60AppViewRC5TRect
NewL__17Cayfly_s60AppViewRC5TRect:
	@ args = 0, pretend = 0, frame = 0
	@ frame_needed = 0, current_function_anonymous_args = 0
	stmfd	sp!, {r4, lr}
	bl	NewLC__17Cayfly_s60AppViewRC5TRect
	mov	r4, r0
	bl	Pop__12CleanupStack
	mov	r0, r4
	ldmfd	sp!, {r4, lr}
	bx	lr
	.align	0
	.global	NewLC__17Cayfly_s60AppViewRC5TRect
NewLC__17Cayfly_s60AppViewRC5TRect:
	@ args = 0, pretend = 0, frame = 0
	@ frame_needed = 0, current_function_anonymous_args = 0
	stmfd	sp!, {r4, r5, lr}
	mov	r5, r0
	mov	r0, #48
	bl	newL__5CBaseUi
	subs	r4, r0, #0
	beq	.L3928
	mov	r0, r4
	bl	__17Cayfly_s60AppView
	mov	r4, r0
.L3928:
	mov	r0, r4
	bl	PushL__12CleanupStackP5CBase
	mov	r0, r4
	mov	r1, r5
	bl	ConstructL__17Cayfly_s60AppViewRC5TRect
	mov	r0, r4
	ldmfd	sp!, {r4, r5, lr}
	bx	lr
	.align	0
	.global	ConstructL__17Cayfly_s60AppViewRC5TRect
ConstructL__17Cayfly_s60AppViewRC5TRect:
	@ args = 0, pretend = 0, frame = 0
	@ frame_needed = 0, current_function_anonymous_args = 0
	stmfd	sp!, {r4, r5, lr}
	mov	r4, r0
	mov	r5, r1
	bl	CreateWindowL__11CCoeControl
	mov	r0, r4
	mov	r1, r5
	bl	SetRect__11CCoeControlRC5TRect
	ldr	r3, [r4, #0]
	mov	r0, r4
	ldr	ip, [r3, #32]
	mov	lr, pc
	bx	ip
	ldmfd	sp!, {r4, r5, lr}
	bx	lr
	.align	0
	.global	__17Cayfly_s60AppView
__17Cayfly_s60AppView:
	@ args = 0, pretend = 0, frame = 0
	@ frame_needed = 0, current_function_anonymous_args = 0
	stmfd	sp!, {r4, lr}
	mov	r4, r0
	bl	__11CCoeControl
	ldr	r3, .L3933
	str	r3, [r4, #4]
	ldr	r3, .L3933+4
	str	r3, [r4, #0]
	mov	r0, r4
	b	.L3932
.L3934:
	.align	0
.L3933:
	.word	__vt_11CCoeControl.15MObjectProvider
	.word	__vt_17Cayfly_s60AppView
.L3932:
	ldmfd	sp!, {r4, lr}
	bx	lr
	.align	0
	.global	_._17Cayfly_s60AppView
_._17Cayfly_s60AppView:
	@ args = 0, pretend = 0, frame = 0
	@ frame_needed = 0, current_function_anonymous_args = 0
	@ I don't think this function clobbers lr
	ldr	r3, .L3937
	str	r3, [r0, #4]
	ldr	r3, .L3937+4
	str	r3, [r0, #0]
	b	_._11CCoeControl
.L3938:
	.align	0
.L3937:
	.word	__vt_11CCoeControl.15MObjectProvider
	.word	__vt_17Cayfly_s60AppView
	.align	0
	.global	Draw__C17Cayfly_s60AppViewRC5TRect
Draw__C17Cayfly_s60AppViewRC5TRect:
	@ args = 0, pretend = 0, frame = 16
	@ frame_needed = 0, current_function_anonymous_args = 0
	stmfd	sp!, {r4, r5, r6, lr}
	sub	sp, sp, #16
	mov	r4, r0
	bl	SystemGc__C11CCoeControl
	mov	r5, r0
	mov	r6, sp
	mov	r0, r6
	mov	r1, r4
	bl	Rect__C11CCoeControl
	ldr	r3, [r5, #0]
	mov	r0, r5
	mov	r1, r6
	ldr	ip, [r3, #184]
	mov	lr, pc
	bx	ip
	add	sp, sp, #16
	ldmfd	sp!, {r4, r5, r6, lr}
	bx	lr
	.align	0
	.global	SizeChanged__17Cayfly_s60AppView
SizeChanged__17Cayfly_s60AppView:
	@ args = 0, pretend = 0, frame = 0
	@ frame_needed = 0, current_function_anonymous_args = 0
	@ I don't think this function clobbers lr
	b	DrawNow__C11CCoeControl
	.section .text$Delete__t13CleanupDelete1Z11MDataSourcePv,"x"
	.linkonce discard
	.align	0
	.global	Delete__t13CleanupDelete1Z11MDataSourcePv
Delete__t13CleanupDelete1Z11MDataSourcePv:
	@ args = 0, pretend = 0, frame = 0
	@ frame_needed = 0, current_function_anonymous_args = 0
	stmfd	sp!, {lr}
	cmp	r0, #0
	ldmeqfd	sp!, {ip}
	bxeq	ip
	ldr	r3, [r0, #8]
	mov	r1, #3
	ldr	ip, [r3, #8]
	mov	lr, pc
	bx	ip
	ldmfd	sp!, {ip}
	bx	ip
	.section .text$Delete__t13CleanupDelete1Z9MDataSinkPv,"x"
	.linkonce discard
	.align	0
	.global	Delete__t13CleanupDelete1Z9MDataSinkPv
Delete__t13CleanupDelete1Z9MDataSinkPv:
	@ args = 0, pretend = 0, frame = 0
	@ frame_needed = 0, current_function_anonymous_args = 0
	stmfd	sp!, {lr}
	cmp	r0, #0
	ldmeqfd	sp!, {ip}
	bxeq	ip
	ldr	r3, [r0, #8]
	mov	r1, #3
	ldr	ip, [r3, #8]
	mov	lr, pc
	bx	ip
	ldmfd	sp!, {ip}
	bx	ip
	.global	__vt_17Cayfly_s60AppView
	.section .rdata$__vt_17Cayfly_s60AppView,"w"
	.linkonce same_size
	.align	0
__vt_17Cayfly_s60AppView:
	.word	0
	.word	0
	.word	_._17Cayfly_s60AppView
	.word	OfferKeyEventL__11CCoeControlRC9TKeyEvent10TEventCode
	.word	MakeVisible__11CCoeControli
	.word	SetDimmed__11CCoeControli
	.word	SetContainerWindowL__11CCoeControlRC11CCoeControl
	.word	ConstructFromResourceL__11CCoeControlR15TResourceReader
	.word	ActivateL__11CCoeControl
	.word	PrepareForFocusLossL__11CCoeControl
	.word	PrepareForFocusGainL__11CCoeControl
	.word	SetAdjacent__11CCoeControli
	.word	SetNeighbor__11CCoeControlP11CCoeControl
	.word	HasBorder__C11CCoeControl
	.word	MinimumSize__11CCoeControl
	.word	HandleResourceChange__11CCoeControli
	.word	GetColorUseListL__C11CCoeControlRt9CArrayFix1Z12TCoeColorUse
	.word	GetHelpContext__C11CCoeControlR15TCoeHelpContext
	.word	InputCapabilities__C11CCoeControl
	.word	HandlePointerEventL__11CCoeControlRC13TPointerEvent
	.word	HandlePointerBufferReadyL__11CCoeControl
	.word	FocusChanged__11CCoeControl8TDrawNow
	.word	SizeChanged__17Cayfly_s60AppView
	.word	PositionChanged__11CCoeControl
	.word	CountComponentControls__C11CCoeControl
	.word	ComponentControl__C11CCoeControli
	.word	Draw__C17Cayfly_s60AppViewRC5TRect
	.word	WriteInternalStateL__C11CCoeControlR12RWriteStream
	.word	Reserved_2__11CCoeControl
	.section .text$__thunk_4_MopSupplyObject__11CCoeControlG8TTypeUid,"x"
	.linkonce discard
	.align	0
	.global	__thunk_4_MopSupplyObject__11CCoeControlG8TTypeUid
__thunk_4_MopSupplyObject__11CCoeControlG8TTypeUid:
	sub	r0, r0, #4
	b	MopSupplyObject__11CCoeControlG8TTypeUid
	.section .text$__thunk_4_MopNext__11CCoeControl,"x"
	.linkonce discard
	.align	0
	.global	__thunk_4_MopNext__11CCoeControl
__thunk_4_MopNext__11CCoeControl:
	sub	r0, r0, #4
	b	MopNext__11CCoeControl
	.global	__vt_11CCoeControl.15MObjectProvider
	.section .rdata$__vt_11CCoeControl.15MObjectProvider,"w"
	.linkonce same_size
	.align	0
__vt_11CCoeControl.15MObjectProvider:
	.word	-4
	.word	0
	.word	__thunk_4_MopSupplyObject__11CCoeControlG8TTypeUid
	.word	__thunk_4_MopNext__11CCoeControl
