@ Generated by gcc 2.9-psion-98r2 (Symbian build 539) for ARM/pe
	.file	"ayfly_s60Audio.cpp"
.gcc2_compiled.:
	.section .rdata
	.align	0
.LC0:
	.ascii	"%1c%1c%1c%1c\000"
.text
	.align	0
	.global	NewL__15Cayfly_s60SoundP10AYSongInfo
NewL__15Cayfly_s60SoundP10AYSongInfo:
	@ args = 0, pretend = 0, frame = 0
	@ frame_needed = 0, current_function_anonymous_args = 0
	stmfd	sp!, {r4, r5, lr}
	mov	r5, r0
	mov	r0, #140
	bl	newL__5CBaseUi
	subs	r4, r0, #0
	beq	.L3082
	mov	r0, r4
	mov	r1, r5
	bl	__15Cayfly_s60SoundP10AYSongInfo
	mov	r4, r0
.L3082:
	mov	r0, r4
	bl	ConstructL__15Cayfly_s60Sound
	mov	r0, r4
	ldmfd	sp!, {r4, r5, lr}
	bx	lr
	.align	0
	.global	__15Cayfly_s60SoundP10AYSongInfo
__15Cayfly_s60SoundP10AYSongInfo:
	@ args = 0, pretend = 0, frame = 0
	@ frame_needed = 0, current_function_anonymous_args = 0
	stmfd	sp!, {r4, r5, r6, r7, r8, lr}
	mov	r4, r0
	mov	r8, r1
	bl	__5CBase
	ldr	r3, .L3102
	str	r3, [r4, #4]
	ldr	r3, .L3102+4
	str	r3, [r4, #0]
	add	r0, r4, #16
	mov	r1, #0
	mov	r2, r1
	mov	r3, r1
	bl	__5TPtr8PUcii
	add	r0, r4, #28
	mov	r1, #0
	mov	r2, r1
	mov	r3, r1
	bl	__5TPtr8PUcii
	ldr	r3, .L3102+8
	str	r3, [r4, #40]
	add	r5, r4, #76
	ldr	r2, .L3102+12
	ldr	r3, .L3102+16
	ldr	r6, [r3, #0]
	ldr	r7, [r2, #0]
	mov	r0, r5
	mov	r1, r5
	mov	r2, #44
	mov	r3, r2
	bl	__5TPtr8PUcii
	str	r6, [r5, #12]
	str	r7, [r5, #16]
	add	r0, r4, #104
	mov	r1, #16
	bl	FillZ__3MemPvi
	str	r8, [r4, #136]
	mov	r3, #7
	str	r3, [r4, #124]
	mov	r0, r4
	b	.L3101
.L3103:
	.align	0
.L3102:
	.word	__vt_15Cayfly_s60Sound.29MMdaAudioOutputStreamCallback
	.word	__vt_15Cayfly_s60Sound
	.word	-32767
	.word	KUidMdaMediaTypeAudio
	.word	KUidMdaDataTypeSettings
.L3101:
	ldmfd	sp!, {r4, r5, r6, r7, r8, lr}
	bx	lr
	.align	0
	.global	_._15Cayfly_s60Sound
_._15Cayfly_s60Sound:
	@ args = 0, pretend = 0, frame = 0
	@ frame_needed = 0, current_function_anonymous_args = 0
	stmfd	sp!, {r4, r5, lr}
	mov	r4, r0
	mov	r5, r1
	ldr	r3, .L3111
	str	r3, [r4, #4]
	ldr	r3, .L3111+4
	str	r3, [r4, #0]
	ldr	r0, [r4, #8]
	cmp	r0, #0
	blne	__builtin_vec_delete
.L3106:
	ldr	r0, [r4, #12]
	cmp	r0, #0
	blne	__builtin_vec_delete
.L3109:
	mov	r0, r4
	mov	r1, r5
	bl	_._5CBase
	b	.L3110
.L3112:
	.align	0
.L3111:
	.word	__vt_15Cayfly_s60Sound.29MMdaAudioOutputStreamCallback
	.word	__vt_15Cayfly_s60Sound
.L3110:
	ldmfd	sp!, {r4, r5, lr}
	bx	lr
	.section .rdata
	.align	0
.LC1:
	.ascii	"S\000T\000R\000E\000A\000M\000O\000P\000E\000N\000 "
	.ascii	"\000F\000A\000I\000L\000E\000D\000\000\000"
.text
	.align	0
	.global	MaoscOpenComplete__15Cayfly_s60Soundi
MaoscOpenComplete__15Cayfly_s60Soundi:
	@ args = 0, pretend = 0, frame = 92
	@ frame_needed = 0, current_function_anonymous_args = 0
	stmfd	sp!, {r4, r5, r6, r7, lr}
	sub	sp, sp, #92
	mov	r5, r0
	subs	r4, r1, #0
	beq	.L3114
	add	r0, sp, #8
	ldr	r1, .L3143
	bl	__7TPtrC16PCUs
	add	r0, sp, #8
	mov	r1, r4
	bl	Panic__4UserRC7TDesC16i
	mov	r3, #0
	str	r3, [r5, #120]
	b	.L3113
.L3144:
	.align	0
.L3143:
	.word	.LC1
.L3141:
	ldr	r3, .L3145
	ldr	r6, [r3, r4, asl #2]
	mov	r3, #1
	strb	r3, [r5, #132]
	b	.L3116
.L3146:
	.align	0
.L3145:
	.word	sampleRateConversionTable
.L3142:
	ldr	r3, .L3147
	ldr	r6, [r3, r4, asl #2]
	strb	r2, [r5, #132]
	b	.L3124
.L3148:
	.align	0
.L3147:
	.word	sampleRateConversionTable
.L3114:
	mov	r6, #0
	mov	r4, r6
	ldr	r7, .L3149
.L3118:
	add	r0, sp, #16
	add	r1, sp, #4
	bl	Trap__5TTrapRi
	cmp	r0, #0
	bne	.L3121
	ldr	r0, [r5, #72]
	ldr	ip, [r0, #0]
	add	r3, r4, #1
	ldr	r1, [r7, r3, asl #2]
	mov	r2, #67108864
	ldr	ip, [ip, #12]
	mov	lr, pc
	bx	ip
	bl	UnTrap__5TTrap
.L3121:
	ldr	r3, [sp, #4]
	cmp	r3, #0
	beq	.L3141
	add	r4, r4, #2
	cmp	r4, #13
	bls	.L3118
.L3116:
	cmp	r6, #0
	bne	.L3124
	mov	r4, r6
	ldr	r7, .L3149
.L3128:
	add	r0, sp, #16
	mov	r1, sp
	bl	Trap__5TTrapRi
	cmp	r0, #0
	bne	.L3131
	ldr	r0, [r5, #72]
	ldr	ip, [r0, #0]
	add	r3, r4, #1
	ldr	r1, [r7, r3, asl #2]
	mov	r2, #33554432
	ldr	ip, [ip, #12]
	mov	lr, pc
	bx	ip
	bl	UnTrap__5TTrap
.L3131:
	ldr	r2, [sp, #0]
	cmp	r2, #0
	beq	.L3142
	add	r4, r4, #2
	cmp	r4, #13
	bls	.L3128
.L3124:
	ldr	r2, [r5, #136]
	ldr	r3, .L3149+4
	str	r6, [r2, r3]
	ldr	r3, [r5, #136]
	ldr	r4, .L3149+8
	ldr	r3, [r3, r4]
	ldr	r0, [r3, #12]
	bl	SetParameters__2ay
	mov	r3, #2
	str	r3, [r5, #120]
	ldrb	r3, [r5, #132]	@ zero_extendqisi2
	cmp	r3, #0
	beq	.L3135
	ldr	r3, [r5, #136]
	ldr	r3, [r3, r4]
	ldr	r0, [r3, #12]
	ldr	r1, [r5, #8]
	mov	r2, #65536
	bl	ayProcess__2ayPUcUl
	ldr	r3, [r5, #136]
	ldr	r3, [r3, r4]
	ldr	r0, [r3, #12]
	ldr	r1, [r5, #12]
	mov	r2, #65536
	bl	ayProcess__2ayPUcUl
	b	.L3138
.L3150:
	.align	0
.L3149:
	.word	sampleRateConversionTable
	.word	67172
	.word	67136
.L3135:
	ldr	r3, [r5, #136]
	ldr	r4, .L3152
	ldr	r3, [r3, r4]
	ldr	r0, [r3, #12]
	ldr	r1, [r5, #8]
	mov	r2, #65536
	bl	ayProcessMono__2ayPUcUl
	ldr	r3, [r5, #136]
	ldr	r3, [r3, r4]
	ldr	r0, [r3, #12]
	ldr	r1, [r5, #12]
	mov	r2, #65536
	bl	ayProcessMono__2ayPUcUl
.L3138:
	ldr	r0, [r5, #72]
	ldr	r3, [r0, #0]
	ldr	r1, [r5, #124]
	ldr	ip, [r3, #28]
	mov	lr, pc
	bx	ip
	ldr	r0, [r5, #72]
	mov	r1, #0
	bl	SetBalanceL__21CMdaAudioOutputStreami
	ldr	r0, [r5, #72]
	ldr	r3, [r0, #0]
	add	r1, r5, #16
	ldr	ip, [r3, #36]
	mov	lr, pc
	bx	ip
	ldr	r0, [r5, #72]
	ldr	r3, [r0, #0]
	add	r1, r5, #28
	ldr	ip, [r3, #36]
	mov	lr, pc
	bx	ip
	mov	r3, #8
	str	r3, [r5, #56]
	mov	r3, #0
	str	r3, [r5, #64]
	b	.L3151
.L3153:
	.align	0
.L3152:
	.word	67136
.L3151:
.L3113:
	add	sp, sp, #92
	ldmfd	sp!, {r4, r5, r6, r7, lr}
	bx	lr
	.align	0
	.global	MixLoop__15Cayfly_s60SoundPv
MixLoop__15Cayfly_s60SoundPv:
	@ args = 0, pretend = 0, frame = 0
	@ frame_needed = 0, current_function_anonymous_args = 0
	stmfd	sp!, {r4, r5, lr}
	mov	r4, r0
	ldr	r3, [r4, #56]
	rsb	r5, r3, #8
	mov	r5, r5, asl #13
	bl	State__15Cayfly_s60Sound
	cmp	r0, #2
	movne	r0, #0
	bne	.L3176
.L3155:
	ldr	r3, [r4, #68]
	cmp	r3, #0
	beq	.L3156
	ldr	r3, [r4, #52]
	cmp	r3, #0
	bne	.L3157
	ldrb	r3, [r4, #132]	@ zero_extendqisi2
	cmp	r3, #0
	beq	.L3158
	ldr	r2, [r4, #136]
	ldr	ip, [r4, #56]
	ldr	r3, .L3180
	ldr	r3, [r2, r3]
	ldr	r1, [r4, #8]
	b	.L3177
.L3181:
	.align	0
.L3180:
	.word	67136
.L3158:
	ldr	r2, [r4, #136]
	ldr	ip, [r4, #56]
	ldr	r3, .L3182
	ldr	r3, [r2, r3]
	ldr	r1, [r4, #8]
	b	.L3178
.L3183:
	.align	0
.L3182:
	.word	67136
.L3157:
	ldrb	r3, [r4, #132]	@ zero_extendqisi2
	cmp	r3, #0
	beq	.L3163
	ldr	r2, [r4, #136]
	ldr	ip, [r4, #56]
	ldr	r3, .L3184
	ldr	r3, [r2, r3]
	ldr	r1, [r4, #12]
.L3177:
	ldr	r0, [r3, #12]
	add	r1, r1, ip, asl #13
	mov	r2, r5
	bl	ayProcess__2ayPUcUl
	b	.L3162
.L3185:
	.align	0
.L3184:
	.word	67136
.L3163:
	ldr	r2, [r4, #136]
	ldr	ip, [r4, #56]
	ldr	r3, .L3186
	ldr	r3, [r2, r3]
	ldr	r1, [r4, #12]
.L3178:
	ldr	r0, [r3, #12]
	add	r1, r1, ip, asl #13
	mov	r2, r5
	bl	ayProcessMono__2ayPUcUl
.L3162:
	mov	r2, #0
	str	r2, [r4, #56]
	ldr	r3, [r4, #52]
	rsb	r3, r3, #1
	str	r3, [r4, #52]
	str	r2, [r4, #68]
	b	.L3167
.L3187:
	.align	0
.L3186:
	.word	67136
.L3156:
	ldr	ip, [r4, #8]
	ldr	r3, [r4, #52]
	cmp	r3, #1
	ldreq	ip, [r4, #12]
.L3168:
	ldrb	r3, [r4, #132]	@ zero_extendqisi2
	cmp	r3, #0
	beq	.L3169
	ldr	r2, [r4, #136]
	ldr	r1, [r4, #56]
	ldr	r3, .L3188
	ldr	r3, [r2, r3]
	ldr	r0, [r3, #12]
	add	r1, ip, r1, asl #13
	mov	r2, #8192
	bl	ayProcess__2ayPUcUl
	b	.L3171
.L3189:
	.align	0
.L3188:
	.word	67136
.L3169:
	ldr	r2, [r4, #136]
	ldr	r1, [r4, #56]
	ldr	r3, .L3190
	ldr	r3, [r2, r3]
	ldr	r0, [r3, #12]
	add	r1, ip, r1, asl #13
	mov	r2, #8192
	bl	ayProcessMono__2ayPUcUl
.L3171:
	ldr	r3, [r4, #56]
	add	r3, r3, #1
	str	r3, [r4, #56]
	cmp	r3, #8
	bne	.L3167
	ldr	r3, [r4, #52]
	cmp	r3, #0
	bne	.L3174
	ldr	r0, [r4, #72]
	ldr	r3, [r0, #0]
	add	r1, r4, #16
	b	.L3179
.L3191:
	.align	0
.L3190:
	.word	67136
.L3174:
	ldr	r0, [r4, #72]
	ldr	r3, [r0, #0]
	add	r1, r4, #28
.L3179:
	ldr	ip, [r3, #36]
	mov	lr, pc
	bx	ip
	mov	r0, #0
	str	r0, [r4, #64]
	b	.L3176
.L3167:
	mov	r0, #1
.L3176:
	ldmfd	sp!, {r4, r5, lr}
	bx	lr
	.align	0
	.global	MaoscBufferCopied__15Cayfly_s60SoundiRC6TDesC8
MaoscBufferCopied__15Cayfly_s60SoundiRC6TDesC8:
	@ args = 0, pretend = 0, frame = 8
	@ frame_needed = 0, current_function_anonymous_args = 0
	stmfd	sp!, {r4, lr}
	sub	sp, sp, #8
	mov	r4, r0
	mov	r0, r2
	cmp	r1, #0
	movne	r3, #0
	strne	r3, [r4, #120]
	bne	.L3192
.L3193:
	ldr	r3, [r4, #120]
	cmp	r3, #2
	bne	.L3192
	ldr	r3, [r4, #64]
	cmp	r3, #0
	bne	.L3195
	str	r3, [r4, #52]
	bl	Ptr__C6TDesC8
	ldr	r3, [r4, #12]
	cmp	r0, r3
	moveq	r3, #1
	streq	r3, [r4, #52]
.L3196:
	mov	r3, #0
	str	r3, [r4, #56]
	str	r3, [r4, #68]
	mvn	r0, #99
	bl	NewL__5CIdlei
	str	r0, [r4, #60]
	ldr	r3, .L3200
	stmia	sp, {r3, r4}	@ phole stm
	ldmia	sp, {r1-r2}
	bl	Start__5CIdleG9TCallBack
	mov	r3, #1
	str	r3, [r4, #64]
	b	.L3192
.L3201:
	.align	0
.L3200:
	.word	MixLoop__15Cayfly_s60SoundPv
.L3195:
	mov	r3, #1
	str	r3, [r4, #68]
.L3192:
	add	sp, sp, #8
	ldmfd	sp!, {r4, lr}
	bx	lr
	.align	0
	.global	MaoscPlayComplete__15Cayfly_s60Soundi
MaoscPlayComplete__15Cayfly_s60Soundi:
	@ args = 0, pretend = 0, frame = 0
	@ frame_needed = 0, current_function_anonymous_args = 0
	cmp	r1, #0
	movne	r3, #0
	strne	r3, [r0, #120]
	bx	lr
	.align	0
	.global	SetDeviceVolume__15Cayfly_s60Soundi
SetDeviceVolume__15Cayfly_s60Soundi:
	@ args = 0, pretend = 0, frame = 0
	@ frame_needed = 0, current_function_anonymous_args = 0
	stmfd	sp!, {r4, lr}
	mov	r4, r0
	str	r1, [r4, #124]
	bl	PrivateWaitRequestOK__15Cayfly_s60Sound
	add	r0, r4, #40
	add	r1, r4, #44
	mov	r2, #3
	bl	RequestComplete__C7RThreadRP14TRequestStatusi
	ldmfd	sp!, {r4, lr}
	bx	lr
	.align	0
	.global	GetDeviceVolume__15Cayfly_s60Sound
GetDeviceVolume__15Cayfly_s60Sound:
	@ args = 0, pretend = 0, frame = 0
	@ frame_needed = 0, current_function_anonymous_args = 0
	stmfd	sp!, {r4, lr}
	mov	r4, r0
	ldr	r0, .L3211
	bl	After__4UserG27TTimeIntervalMicroSeconds32
	ldr	r0, [r4, #124]
	b	.L3210
.L3212:
	.align	0
.L3211:
	.word	50000
.L3210:
	ldmfd	sp!, {r4, lr}
	bx	lr
	.align	0
	.global	StartL__15Cayfly_s60Sound
StartL__15Cayfly_s60Sound:
	@ args = 0, pretend = 0, frame = 0
	@ frame_needed = 0, current_function_anonymous_args = 0
	stmfd	sp!, {r4, lr}
	mov	r4, r0
	bl	PrivateWaitRequestOK__15Cayfly_s60Sound
	add	r0, r4, #40
	add	r1, r4, #44
	mov	r2, #1
	bl	RequestComplete__C7RThreadRP14TRequestStatusi
	mov	r0, #1
	ldmfd	sp!, {r4, lr}
	bx	lr
	.align	0
	.global	StopL__15Cayfly_s60Sound
StopL__15Cayfly_s60Sound:
	@ args = 0, pretend = 0, frame = 0
	@ frame_needed = 0, current_function_anonymous_args = 0
	stmfd	sp!, {r4, lr}
	mov	r4, r0
	bl	PrivateWaitRequestOK__15Cayfly_s60Sound
	add	r0, r4, #40
	add	r1, r4, #44
	mov	r2, #2
	bl	RequestComplete__C7RThreadRP14TRequestStatusi
	ldr	r0, .L3220
	bl	After__4UserG27TTimeIntervalMicroSeconds32
	b	.L3219
.L3221:
	.align	0
.L3220:
	.word	100000
.L3219:
	ldmfd	sp!, {r4, lr}
	bx	lr
	.align	0
	.global	PrivateStart__15Cayfly_s60Sound
PrivateStart__15Cayfly_s60Sound:
	@ args = 0, pretend = 0, frame = 0
	@ frame_needed = 0, current_function_anonymous_args = 0
	stmfd	sp!, {r4, lr}
	mov	r4, r0
	ldr	r3, [r4, #120]
	cmp	r3, #0
	bne	.L3222
	ldr	r0, [r4, #72]
	cmp	r0, #0
	ldrne	r3, [r0, #0]
	movne	r1, #3
	ldrne	ip, [r3, #8]
	movne	lr, pc
	bxne	ip
.L3225:
	mov	r3, #1
	str	r3, [r4, #120]
	add	r0, r4, #4
	mov	r1, #0
	bl	NewL__21CMdaAudioOutputStreamR29MMdaAudioOutputStreamCallbackP10CMdaServer
	str	r0, [r4, #72]
	ldr	r3, [r0, #0]
	add	r1, r4, #76
	ldr	ip, [r3, #16]
	mov	lr, pc
	bx	ip
.L3222:
	ldmfd	sp!, {r4, lr}
	bx	lr
	.align	0
	.global	PrivateStop__15Cayfly_s60Sound
PrivateStop__15Cayfly_s60Sound:
	@ args = 0, pretend = 0, frame = 0
	@ frame_needed = 0, current_function_anonymous_args = 0
	stmfd	sp!, {lr}
	ldr	r3, [r0, #120]
	cmp	r3, #2
	ldmnefd	sp!, {ip}
	bxne	ip
	mov	r3, #3
	str	r3, [r0, #120]
	ldr	r0, [r0, #72]
	ldr	r3, [r0, #0]
	ldr	ip, [r3, #40]
	mov	lr, pc
	bx	ip
	ldmfd	sp!, {ip}
	bx	ip
	.align	0
	.global	State__15Cayfly_s60Sound
State__15Cayfly_s60Sound:
	@ args = 0, pretend = 0, frame = 0
	@ frame_needed = 0, current_function_anonymous_args = 0
	ldr	r0, [r0, #120]
	bx	lr
	.align	0
	.global	Exit__15Cayfly_s60Sound
Exit__15Cayfly_s60Sound:
	@ args = 0, pretend = 0, frame = 4
	@ frame_needed = 0, current_function_anonymous_args = 0
	stmfd	sp!, {r4, r5, r6, lr}
	sub	sp, sp, #4
	mov	r5, r0
	mov	r6, sp
	mov	r3, #-2147483647
	str	r3, [sp, #0]
	add	r4, r5, #40
	mov	r0, r4
	mov	r1, r6
	bl	Logon__C7RThreadR14TRequestStatus
	mov	r0, r4
	add	r1, r5, #44
	mov	r2, #4
	bl	RequestComplete__C7RThreadRP14TRequestStatusi
	mov	r0, r6
	bl	WaitForRequest__4UserR14TRequestStatus
	mov	r0, r4
	bl	Close__11RHandleBase
	add	sp, sp, #4
	ldmfd	sp!, {r4, r5, r6, lr}
	bx	lr
	.align	0
	.global	PrivateSetVolume__15Cayfly_s60Sound
PrivateSetVolume__15Cayfly_s60Sound:
	@ args = 0, pretend = 0, frame = 0
	@ frame_needed = 0, current_function_anonymous_args = 0
	stmfd	sp!, {r4, lr}
	mov	r4, r0
	ldr	r3, [r4, #120]
	cmp	r3, #2
	bne	.L3233
	ldr	r3, [r4, #124]
	cmp	r3, #0
	movlt	r3, #0
	strlt	r3, [r4, #124]
.L3234:
	ldr	r0, [r4, #72]
	ldr	r3, [r0, #0]
	ldr	ip, [r3, #20]
	mov	lr, pc
	bx	ip
	ldr	r3, [r4, #124]
	cmp	r3, r0
	ble	.L3235
	ldr	r0, [r4, #72]
	ldr	r3, [r0, #0]
	ldr	ip, [r3, #20]
	mov	lr, pc
	bx	ip
	str	r0, [r4, #124]
.L3235:
	ldr	r0, [r4, #72]
	ldr	r3, [r0, #0]
	ldr	r1, [r4, #124]
	ldr	ip, [r3, #28]
	mov	lr, pc
	bx	ip
.L3233:
	ldmfd	sp!, {r4, lr}
	bx	lr
	.align	0
	.global	PrivateWaitRequestOK__15Cayfly_s60Sound
PrivateWaitRequestOK__15Cayfly_s60Sound:
	@ args = 0, pretend = 0, frame = 0
	@ frame_needed = 0, current_function_anonymous_args = 0
	stmfd	sp!, {r4, lr}
	mov	r4, r0
.L3237:
	ldr	r3, [r4, #44]
	cmp	r3, #0
	beq	.L3239
	ldr	r3, [r3, #0]
	cmp	r3, #-2147483647
	beq	.L3238
.L3239:
	ldr	r0, .L3245
	bl	After__4UserG27TTimeIntervalMicroSeconds32
	b	.L3237
.L3246:
	.align	0
.L3245:
	.word	10000
.L3238:
	ldmfd	sp!, {r4, lr}
	bx	lr
	.align	0
	.global	_._15CCommandHandler
_._15CCommandHandler:
	@ args = 0, pretend = 0, frame = 0
	@ frame_needed = 0, current_function_anonymous_args = 0
	@ I don't think this function clobbers lr
	ldr	r3, .L3249
	str	r3, [r0, #0]
	b	_._7CActive
.L3250:
	.align	0
.L3249:
	.word	__vt_15CCommandHandler
	.align	0
	.global	DoCancel__15CCommandHandler
DoCancel__15CCommandHandler:
	@ args = 0, pretend = 0, frame = 0
	@ frame_needed = 0, current_function_anonymous_args = 0
	bx	lr
	.align	0
	.global	__15CCommandHandler
__15CCommandHandler:
	@ args = 0, pretend = 0, frame = 0
	@ frame_needed = 0, current_function_anonymous_args = 0
	stmfd	sp!, {r4, lr}
	mov	r4, r0
	mvn	r1, #99
	bl	__7CActivei
	ldr	r3, .L3255
	str	r3, [r4, #0]
	mov	r0, r4
	b	.L3254
.L3256:
	.align	0
.L3255:
	.word	__vt_15CCommandHandler
.L3254:
	ldmfd	sp!, {r4, lr}
	bx	lr
	.align	0
	.global	NewL__15CCommandHandler
NewL__15CCommandHandler:
	@ args = 0, pretend = 0, frame = 0
	@ frame_needed = 0, current_function_anonymous_args = 0
	stmfd	sp!, {lr}
	mov	r0, #28
	bl	newL__5CBaseUi
	cmp	r0, #0
	ldmeqfd	sp!, {ip}
	bxeq	ip
	ldmfd	sp!, {lr}
	b	__15CCommandHandler
	.align	0
	.global	Start__15CCommandHandlerP15Cayfly_s60Sound
Start__15CCommandHandlerP15Cayfly_s60Sound:
	@ args = 0, pretend = 0, frame = 0
	@ frame_needed = 0, current_function_anonymous_args = 0
	stmfd	sp!, {r4, lr}
	mov	r4, r0
	str	r1, [r4, #24]
	add	r3, r4, #4
	str	r3, [r1, #44]
	mov	r3, #-2147483647
	str	r3, [r4, #4]
	bl	SetActive__7CActive
	ldr	r2, [r4, #24]
	mov	r3, #0
	str	r3, [r2, #48]
	ldmfd	sp!, {r4, lr}
	bx	lr
	.align	0
	.global	RunL__15CCommandHandler
RunL__15CCommandHandler:
	@ args = 0, pretend = 0, frame = 0
	@ frame_needed = 0, current_function_anonymous_args = 0
	stmfd	sp!, {r4, lr}
	mov	r4, r0
	ldr	r3, [r4, #4]
	sub	r3, r3, #1
	cmp	r3, #4
	ldrls	pc, [pc, r3, asl #2]
	b	.L3263
	.align	0
.L3273:
	.word	.L3264
	.word	.L3265
	.word	.L3266
	.word	.L3267
	.word	.L3268
.L3264:
	ldr	r0, [r4, #24]
	bl	PrivateStart__15Cayfly_s60Sound
	b	.L3263
.L3265:
	ldr	r0, [r4, #24]
	bl	PrivateStop__15Cayfly_s60Sound
	b	.L3263
.L3266:
	ldr	r0, [r4, #24]
	bl	PrivateSetVolume__15Cayfly_s60Sound
	b	.L3263
.L3267:
	ldr	r0, [r4, #24]
	bl	PrivateStop__15Cayfly_s60Sound
	ldr	r2, [r4, #24]
	mov	r3, #1
	str	r3, [r2, #48]
	b	.L3263
.L3268:
	ldr	r0, [r4, #24]
	bl	State__15Cayfly_s60Sound
	cmp	r0, #0
	bne	.L3263
	mov	r0, r4
	bl	Deque__7CActive
	bl	Stop__16CActiveScheduler
	ldr	r3, [r4, #24]
	ldr	r0, [r3, #72]
	cmp	r0, #0
	ldrne	r3, [r0, #0]
	movne	r1, #3
	ldrne	ip, [r3, #8]
	movne	lr, pc
	bxne	ip
.L3271:
	ldr	r2, [r4, #24]
	mov	r3, #0
	str	r3, [r2, #72]
	b	.L3262
.L3263:
	ldr	r2, [r4, #24]
	add	r3, r4, #4
	str	r3, [r2, #44]
	mov	r3, #-2147483647
	str	r3, [r4, #4]
	mov	r0, r4
	bl	SetActive__7CActive
	ldr	r3, [r4, #24]
	ldr	r3, [r3, #48]
	cmp	r3, #0
	beq	.L3262
	ldr	r0, .L3283
	bl	After__4UserG27TTimeIntervalMicroSeconds32
	ldr	r0, [r4, #24]
	add	r0, r0, #44
	mov	r1, #5
	bl	RequestComplete__4UserRP14TRequestStatusi
	b	.L3282
.L3284:
	.align	0
.L3283:
	.word	10000
.L3282:
.L3262:
	ldmfd	sp!, {r4, lr}
	bx	lr
	.align	0
	.global	serverthreadfunction__FPv
serverthreadfunction__FPv:
	@ args = 0, pretend = 0, frame = 0
	@ frame_needed = 0, current_function_anonymous_args = 0
	stmfd	sp!, {r4, r5, r6, lr}
	mov	r5, r0
	bl	New__12CTrapCleanup
	mov	r6, r0
	mov	r0, #20
	bl	__nw__5CBaseUi
	subs	r4, r0, #0
	beq	.L3286
	mov	r0, r4
	bl	__16CActiveScheduler
	mov	r4, r0
.L3286:
	mov	r0, r4
	bl	Install__16CActiveSchedulerP16CActiveScheduler
	bl	NewL__15CCommandHandler
	str	r0, [r5, #128]
	bl	Add__16CActiveSchedulerP7CActive
	ldr	r0, [r5, #128]
	mov	r1, r5
	bl	Start__15CCommandHandlerP15Cayfly_s60Sound
	bl	Start__16CActiveScheduler
	ldr	r0, [r5, #128]
	cmp	r0, #0
	ldrne	r3, [r0, #0]
	movne	r1, #3
	ldrne	ip, [r3, #8]
	movne	lr, pc
	bxne	ip
.L3288:
	cmp	r4, #0
	ldrne	r3, [r4, #0]
	movne	r0, r4
	movne	r1, #3
	ldrne	ip, [r3, #8]
	movne	lr, pc
	bxne	ip
.L3290:
	cmp	r6, #0
	ldrne	r3, [r6, #0]
	movne	r0, r6
	movne	r1, #3
	ldrne	ip, [r3, #8]
	movne	lr, pc
	bxne	ip
.L3292:
	mov	r0, #0
	ldmfd	sp!, {r4, r5, r6, lr}
	bx	lr
	.align	0
	.global	ConstructL__15Cayfly_s60Sound
ConstructL__15Cayfly_s60Sound:
	@ args = 0, pretend = 0, frame = 4
	@ frame_needed = 0, current_function_anonymous_args = 0
	stmfd	sp!, {r4, r5, lr}
	sub	sp, sp, #16
	mov	r4, r0
	mov	r3, #7
	str	r3, [r4, #124]
	mov	r0, #65536
	bl	AllocL__4Useri
	mov	r1, r0
	str	r1, [r4, #8]
	adds	r0, r4, #16
	movne	r2, #65536
	movne	r3, r2
	blne	__5TPtr8PUcii
.L3298:
	mov	r0, #65536
	bl	AllocL__4Useri
	mov	r1, r0
	str	r1, [r4, #12]
	adds	r0, r4, #28
	movne	r2, #65536
	movne	r3, r2
	blne	__5TPtr8PUcii
.L3302:
	mov	r3, #0
	str	r3, [r4, #72]
	str	r3, [r4, #120]
	mov	r3, #1
	strb	r3, [r4, #132]
	ldr	r3, .L3327
	str	r3, [sp, #12]
	mov	r5, #0
.L3309:
	ldr	r0, .L3327+4
	bl	After__4UserG27TTimeIntervalMicroSeconds32
	str	r5, [sp, #0]
	stmib	sp, {r4, r5}	@ phole stm
	add	r0, r4, #40
	ldr	r1, .L3327+8
	ldr	r2, .L3327+12
	mov	r3, #65536
	bl	Create__7RThreadRC7TDesC16PFPv_iiP5RHeapPv10TOwnerType
	cmn	r0, #11
	beq	.L3309
	add	r4, r4, #40
	mov	r0, r4
	ldr	r1, .L3327+16
	bl	SetProcessPriority__C7RThread16TProcessPriority
	mov	r0, r4
	mov	r1, #30
	bl	SetPriority__C7RThread15TThreadPriority
	add	r0, sp, #12
	mvn	r1, #9
	bl	SetPriority__C7RThread15TThreadPriority
	mov	r0, r4
	bl	Resume__C7RThread
	b	.L3326
.L3328:
	.align	0
.L3327:
	.word	-32767
	.word	100000
	.word	KThreadName
	.word	serverthreadfunction__FPv
	.word	450
.L3326:
	add	sp, sp, #16
	ldmfd	sp!, {r4, r5, lr}
	bx	lr
	.align	0
	.global	__15Cayfly_s60AudioP10AYSongInfo
__15Cayfly_s60AudioP10AYSongInfo:
	@ args = 0, pretend = 0, frame = 0
	@ frame_needed = 0, current_function_anonymous_args = 0
	stmfd	sp!, {r4, r5, lr}
	mov	r4, r0
	mov	r5, r1
	mov	r1, #32000
	mov	r2, r5
	bl	__13AbstractAudioUlP10AYSongInfo
	ldr	r3, .L3332
	str	r3, [r4, #16]
	str	r5, [r4, #8]
	mov	r0, r5
	bl	NewL__15Cayfly_s60SoundP10AYSongInfo
	str	r0, [r4, #20]
	mov	r0, r4
	b	.L3331
.L3333:
	.align	0
.L3332:
	.word	__vt_15Cayfly_s60Audio
.L3331:
	ldmfd	sp!, {r4, r5, lr}
	bx	lr
	.align	0
	.global	_._15Cayfly_s60Audio
_._15Cayfly_s60Audio:
	@ args = 0, pretend = 0, frame = 0
	@ frame_needed = 0, current_function_anonymous_args = 0
	stmfd	sp!, {r4, r5, lr}
	mov	r4, r0
	mov	r5, r1
	ldr	r3, .L3340
	str	r3, [r4, #16]
	ldr	r0, [r4, #20]
	cmp	r0, #0
	beq	.L3338
	bl	Exit__15Cayfly_s60Sound
	ldr	r0, [r4, #20]
	cmp	r0, #0
	ldrne	r3, [r0, #0]
	movne	r1, #3
	ldrne	ip, [r3, #8]
	movne	lr, pc
	bxne	ip
.L3337:
	mov	r3, #0
	str	r3, [r4, #20]
.L3338:
	mov	r0, r4
	mov	r1, r5
	bl	_._13AbstractAudio
	b	.L3339
.L3341:
	.align	0
.L3340:
	.word	__vt_15Cayfly_s60Audio
.L3339:
	ldmfd	sp!, {r4, r5, lr}
	bx	lr
	.align	0
	.global	Start__15Cayfly_s60Audio
Start__15Cayfly_s60Audio:
	@ args = 0, pretend = 0, frame = 0
	@ frame_needed = 0, current_function_anonymous_args = 0
	stmfd	sp!, {r4, lr}
	mov	r4, r0
	ldr	r0, [r4, #20]
	bl	StartL__15Cayfly_s60Sound
	strb	r0, [r4, #4]
	ldmfd	sp!, {r4, lr}
	bx	lr
	.align	0
	.global	Stop__15Cayfly_s60Audio
Stop__15Cayfly_s60Audio:
	@ args = 0, pretend = 0, frame = 0
	@ frame_needed = 0, current_function_anonymous_args = 0
	@ I don't think this function clobbers lr
	mov	r3, #0
	strb	r3, [r0, #4]
	ldr	r0, [r0, #20]
	b	StopL__15Cayfly_s60Sound
	.align	0
	.global	SetDeviceVolume__15Cayfly_s60Audioi
SetDeviceVolume__15Cayfly_s60Audioi:
	@ args = 0, pretend = 0, frame = 0
	@ frame_needed = 0, current_function_anonymous_args = 0
	@ I don't think this function clobbers lr
	ldr	r0, [r0, #20]
	cmp	r0, #0
	bxeq	lr
	b	SetDeviceVolume__15Cayfly_s60Soundi
	.align	0
	.global	GetDeviceVolume__15Cayfly_s60Audio
GetDeviceVolume__15Cayfly_s60Audio:
	@ args = 0, pretend = 0, frame = 0
	@ frame_needed = 0, current_function_anonymous_args = 0
	@ I don't think this function clobbers lr
	mov	r3, r0
	ldr	r0, [r3, #20]
	cmp	r0, #0
	bxeq	lr
	ldr	r0, [r3, #20]
	b	GetDeviceVolume__15Cayfly_s60Sound
	.section .text$Delete__t13CleanupDelete1Z11MDataSourcePv,"x"
	.linkonce discard
	.align	0
	.global	Delete__t13CleanupDelete1Z11MDataSourcePv
Delete__t13CleanupDelete1Z11MDataSourcePv:
	@ args = 0, pretend = 0, frame = 0
	@ frame_needed = 0, current_function_anonymous_args = 0
	stmfd	sp!, {lr}
	cmp	r0, #0
	ldmeqfd	sp!, {ip}
	bxeq	ip
	ldr	r3, [r0, #8]
	mov	r1, #3
	ldr	ip, [r3, #8]
	mov	lr, pc
	bx	ip
	ldmfd	sp!, {ip}
	bx	ip
	.section .text$Delete__t13CleanupDelete1Z9MDataSinkPv,"x"
	.linkonce discard
	.align	0
	.global	Delete__t13CleanupDelete1Z9MDataSinkPv
Delete__t13CleanupDelete1Z9MDataSinkPv:
	@ args = 0, pretend = 0, frame = 0
	@ frame_needed = 0, current_function_anonymous_args = 0
	stmfd	sp!, {lr}
	cmp	r0, #0
	ldmeqfd	sp!, {ip}
	bxeq	ip
	ldr	r3, [r0, #8]
	mov	r1, #3
	ldr	ip, [r3, #8]
	mov	lr, pc
	bx	ip
	ldmfd	sp!, {ip}
	bx	ip
	.global	__vt_15Cayfly_s60Audio
	.section .rdata$__vt_15Cayfly_s60Audio,"w"
	.linkonce same_size
	.align	0
__vt_15Cayfly_s60Audio:
	.word	0
	.word	0
	.word	_._15Cayfly_s60Audio
	.word	Start__15Cayfly_s60Audio
	.word	Stop__15Cayfly_s60Audio
	.word	WriteAy__13AbstractAudioUcUc
	.word	ChnlMute__13AbstractAudioUlb
	.word	ChnlMuted__13AbstractAudioUl
	.section .text$__thunk_4_MaoscOpenComplete__15Cayfly_s60Soundi,"x"
	.linkonce discard
	.align	0
	.global	__thunk_4_MaoscOpenComplete__15Cayfly_s60Soundi
__thunk_4_MaoscOpenComplete__15Cayfly_s60Soundi:
	sub	r0, r0, #4
	b	MaoscOpenComplete__15Cayfly_s60Soundi
	.section .text$__thunk_4_MaoscBufferCopied__15Cayfly_s60SoundiRC6TDesC8,"x"
	.linkonce discard
	.align	0
	.global	__thunk_4_MaoscBufferCopied__15Cayfly_s60SoundiRC6TDesC8
__thunk_4_MaoscBufferCopied__15Cayfly_s60SoundiRC6TDesC8:
	sub	r0, r0, #4
	b	MaoscBufferCopied__15Cayfly_s60SoundiRC6TDesC8
	.section .text$__thunk_4_MaoscPlayComplete__15Cayfly_s60Soundi,"x"
	.linkonce discard
	.align	0
	.global	__thunk_4_MaoscPlayComplete__15Cayfly_s60Soundi
__thunk_4_MaoscPlayComplete__15Cayfly_s60Soundi:
	sub	r0, r0, #4
	b	MaoscPlayComplete__15Cayfly_s60Soundi
	.global	__vt_15Cayfly_s60Sound.29MMdaAudioOutputStreamCallback
	.section .rdata$__vt_15Cayfly_s60Sound.29MMdaAudioOutputStreamCallback,"w"
	.linkonce same_size
	.align	0
__vt_15Cayfly_s60Sound.29MMdaAudioOutputStreamCallback:
	.word	-4
	.word	0
	.word	__thunk_4_MaoscOpenComplete__15Cayfly_s60Soundi
	.word	__thunk_4_MaoscBufferCopied__15Cayfly_s60SoundiRC6TDesC8
	.word	__thunk_4_MaoscPlayComplete__15Cayfly_s60Soundi
	.global	__vt_15Cayfly_s60Sound
	.section .rdata$__vt_15Cayfly_s60Sound,"w"
	.linkonce same_size
	.align	0
__vt_15Cayfly_s60Sound:
	.word	0
	.word	0
	.word	_._15Cayfly_s60Sound
	.global	__vt_15CCommandHandler
	.section .rdata$__vt_15CCommandHandler,"w"
	.linkonce same_size
	.align	0
__vt_15CCommandHandler:
	.word	0
	.word	0
	.word	_._15CCommandHandler
	.word	DoCancel__15CCommandHandler
	.word	RunL__15CCommandHandler
	.word	RunError__7CActivei
	.section .text$ChnlMuted__13AbstractAudioUl,"x"
	.linkonce discard
	.align	0
	.global	ChnlMuted__13AbstractAudioUl
ChnlMuted__13AbstractAudioUl:
	@ args = 0, pretend = 0, frame = 0
	@ frame_needed = 0, current_function_anonymous_args = 0
	ldr	r3, [r0, #12]
	cmp	r3, #0
	moveq	r0, #1
.L3065:
	ldrne	r3, [r0, #12]
	addne	r3, r3, #176
	ldrneb	r0, [r3, r1]
	bx	lr
	.section .text$ChnlMute__13AbstractAudioUlb,"x"
	.linkonce discard
	.align	0
	.global	ChnlMute__13AbstractAudioUlb
ChnlMute__13AbstractAudioUlb:
	@ args = 0, pretend = 0, frame = 0
	@ frame_needed = 0, current_function_anonymous_args = 0
	mov	r3, r2
	ldr	r2, [r0, #12]
	cmp	r2, #0
	addne	r2, r2, #176
	eorne	r3, r3, #1
	strneb	r3, [r2, r1]
	bx	lr
	.section .text$WriteAy__13AbstractAudioUcUc,"x"
	.linkonce discard
	.align	0
	.global	WriteAy__13AbstractAudioUcUc
WriteAy__13AbstractAudioUcUc:
	@ args = 0, pretend = 0, frame = 0
	@ frame_needed = 0, current_function_anonymous_args = 0
	@ I don't think this function clobbers lr
	ldr	r0, [r0, #12]
	and	r1, r1, #255
	and	r2, r2, #255
	b	ayWrite__2ayUcUc
	.section .rdata
	.align	0
KUidMdaMediaTypeAudio:
	.word	268450136
	.align	0
KUidMdaDataTypeSettings:
	.word	268450121
	.align	0
KThreadName:
	.word	19
	.ascii	"a\000y\000f\000l\000y\000p\000l\000a\000y\000b\000a"
	.ascii	"\000c\000k\000t\000h\000r\000e\000a\000d\000\000\000"
	.align	0
sampleRateConversionTable:
	.word	44100
	.word	16384
	.word	32000
	.word	4096
	.word	22050
	.word	1024
	.word	16000
	.word	256
	.word	11025
	.word	64
	.word	48000
	.word	65536
	.word	8000
	.word	16
